******************************************************************************
                  TI ARM Linker PC v18.1.3                     
******************************************************************************
>> Linked Mon Dec 13 15:27:39 2021

OUTPUT FILE NAME:   <energy_harvester_ble_app_cc2650_5XD.out>
ENTRY POINT SYMBOL: "ResetISR"  address: 00006ab9


MEMORY CONFIGURATION

         name            origin    length      used     unused   attr    fill
----------------------  --------  ---------  --------  --------  ----  --------
  FLASH                 00000000   0000f000  0000b09a  00003f66  R  X
  FLASH_LAST_PAGE       0001f000   00001000  00000058  00000fa8  R  X
  SRAM                  20000000   00004348  00002c07  00001741  RW X


SEGMENT ALLOCATION MAP

run origin  load origin   length   init length attrs members
----------  ----------- ---------- ----------- ----- -------
00000000    00000000    0000abd0   0000abd0    r-x
  00000000    00000000    0000003c   0000003c    r-- .resetVecs
  0000003c    0000003c    000000c4   000000c4    r-x .text.1
  00000100    00000100    0000003c   0000003c    r-- .const:ti_sysbios_knl_Task_Object__PARAMS__C
  0000013c    0000013c    00000034   00000034    r-- .const:ti_sysbios_knl_Mailbox_Object__PARAMS__C
  00000170    00000170    00000030   00000030    r-- .const:ti_sysbios_family_arm_m3_Hwi_Object__PARAMS__C
  000001a0    000001a0    0000002c   0000002c    r-- .const:ti_sysbios_hal_Hwi_Object__PARAMS__C
  000001cc    000001cc    00000028   00000028    r-- .const:ti_sysbios_heaps_HeapMem_Module__FXNS__C
  000001f4    000001f4    00000028   00000028    r-- .const:ti_sysbios_knl_Swi_Object__PARAMS__C
  0000021c    0000021c    00000024   00000024    r-- .const:ti_sysbios_gates_GateHwi_Module__FXNS__C
  00000240    00000240    00000024   00000024    r-- .const:ti_sysbios_gates_GateMutex_Module__FXNS__C
  00000264    00000264    00000024   00000024    r-- .const:ti_sysbios_heaps_HeapMem_Object__PARAMS__C
  00000288    00000288    00000024   00000024    r-- .const:ti_sysbios_knl_Clock_Object__PARAMS__C
  000002ac    000002ac    00000024   00000024    r-- .const:ti_sysbios_knl_Semaphore_Object__PARAMS__C
  000002d0    000002d0    00000020   00000020    r-- .const:ti_sysbios_family_arm_m3_Hwi_Object__DESC__C
  000002f0    000002f0    00000020   00000020    r-- .const:ti_sysbios_gates_GateHwi_Object__DESC__C
  00000310    00000310    00000020   00000020    r-- .const:ti_sysbios_gates_GateMutex_Object__DESC__C
  00000330    00000330    00000020   00000020    r-- .const:ti_sysbios_hal_Hwi_Object__DESC__C
  00000350    00000350    00000020   00000020    r-- .const:ti_sysbios_heaps_HeapMem_Object__DESC__C
  00000370    00000370    00000020   00000020    r-- .const:ti_sysbios_knl_Clock_Object__DESC__C
  00000390    00000390    00000020   00000020    r-- .const:ti_sysbios_knl_Mailbox_Object__DESC__C
  000003b0    000003b0    00000020   00000020    r-- .const:ti_sysbios_knl_Queue_Object__DESC__C
  000003d0    000003d0    00000020   00000020    r-- .const:ti_sysbios_knl_Semaphore_Object__DESC__C
  000003f0    000003f0    00000020   00000020    r-- .const:ti_sysbios_knl_Swi_Object__DESC__C
  00000410    00000410    00000020   00000020    r-- .const:ti_sysbios_knl_Task_Object__DESC__C
  00000430    00000430    00000018   00000018    r-- .const:ti_sysbios_gates_GateHwi_Object__PARAMS__C
  00000448    00000448    00000018   00000018    r-- .const:ti_sysbios_gates_GateMutex_Object__PARAMS__C
  00000460    00000460    00000018   00000018    r-- .const:ti_sysbios_knl_Queue_Object__PARAMS__C
  00000478    00000478    00000008   00000008    r-- .const:ti_sysbios_knl_Idle_funcList__C
  00000480    00000480    00000004   00000004    r-x .text.2
  00000484    00000484    00000004   00000004    r-- .const:ti_sysbios_family_arm_cc26xx_Timer_startupNeeded__C
  00000488    00000488    00000004   00000004    r-- .const:ti_sysbios_family_arm_m3_Hwi_E_alreadyDefined__C
  0000048c    0000048c    00000004   00000004    r-- .const:ti_sysbios_family_arm_m3_Hwi_E_hwiLimitExceeded__C
  00000490    00000490    00000004   00000004    r-- .const:ti_sysbios_family_arm_m3_Hwi_NUM_INTERRUPTS__C
  00000494    00000494    00000004   00000004    r-- .const:ti_sysbios_family_arm_m3_Hwi_Object__count__C
  00000498    00000498    00000004   00000004    r-- .const:ti_sysbios_family_arm_m3_Hwi_Object__table__C
  0000049c    0000049c    00000004   00000004    r-- .const:ti_sysbios_family_arm_m3_Hwi_ccr__C
  000004a0    000004a0    00000004   00000004    r-- .const:ti_sysbios_family_arm_m3_Hwi_excHandlerFunc__C
  000004a4    000004a4    00000004   00000004    r-- .const:ti_sysbios_family_arm_m3_Hwi_nullIsrFunc__C
  000004a8    000004a8    00000004   00000004    r-- .const:ti_sysbios_family_arm_m3_Hwi_numSparseInterrupts__C
  000004ac    000004ac    00000004   00000004    r-- .const:ti_sysbios_family_arm_m3_Hwi_priGroup__C
  000004b0    000004b0    00000004   00000004    r-- .const:ti_sysbios_family_arm_m3_TaskSupport_stackAlignment__C
  000004b4    000004b4    00000004   00000004    r-- .const:ti_sysbios_heaps_HeapMem_E_memory__C
  000004b8    000004b8    00000004   00000004    r-- .const:ti_sysbios_heaps_HeapMem_Module__gateObj__C
  000004bc    000004bc    00000004   00000004    r-- .const:ti_sysbios_heaps_HeapMem_Object__count__C
  000004c0    000004c0    00000004   00000004    r-- .const:ti_sysbios_heaps_HeapMem_Object__table__C
  000004c4    000004c4    00000004   00000004    r-- .const:ti_sysbios_heaps_HeapMem_reqAlign__C
  000004c8    000004c8    00000004   00000004    r-- .const:ti_sysbios_knl_Clock_serviceMargin__C
  000004cc    000004cc    00000004   00000004    r-- .const:ti_sysbios_knl_Mailbox_Object__count__C
  000004d0    000004d0    00000004   00000004    r-- .const:ti_sysbios_knl_Mailbox_Object__table__C
  000004d4    000004d4    00000004   00000004    r-- .const:ti_sysbios_knl_Queue_Object__count__C
  000004d8    000004d8    00000004   00000004    r-- .const:ti_sysbios_knl_Queue_Object__table__C
  000004dc    000004dc    00000004   00000004    r-- .const:ti_sysbios_knl_Swi_Object__count__C
  000004e0    000004e0    00000004   00000004    r-- .const:ti_sysbios_knl_Swi_Object__table__C
  000004e4    000004e4    00000004   00000004    r-- .const:ti_sysbios_knl_Swi_numPriorities__C
  000004e8    000004e8    00000004   00000004    r-- .const:ti_sysbios_knl_Task_Object__count__C
  000004ec    000004ec    00000004   00000004    r-- .const:ti_sysbios_knl_Task_Object__table__C
  000004f0    000004f0    00000004   00000004    r-- .const:ti_sysbios_knl_Task_allBlockedFunc__C
  000004f4    000004f4    00000004   00000004    r-- .const:ti_sysbios_knl_Task_defaultStackHeap__C
  000004f8    000004f8    00000004   00000004    r-- .const:ti_sysbios_knl_Task_defaultStackSize__C
  000004fc    000004fc    00000004   00000004    r-- .const:ti_sysbios_knl_Task_numConstructedTasks__C
  00000500    00000500    00000002   00000002    r-x .text.3
  00000502    00000502    00000002   00000002    r-- .const:ti_sysbios_family_arm_cc26xx_Timer_Module__id__C
  00000504    00000504    00000002   00000002    r-- .const:ti_sysbios_family_arm_cc26xx_TimestampProvider_useClockTimer__C
  00000506    00000506    00000002   00000002    r-- .const:ti_sysbios_family_arm_m3_Hwi_Module__id__C
  00000508    00000508    00000002   00000002    r-- .const:ti_sysbios_gates_GateHwi_Module__id__C
  0000050a    0000050a    00000002   00000002    r-- .const:ti_sysbios_gates_GateMutex_Module__id__C
  0000050c    0000050c    00000002   00000002    r-- .const:ti_sysbios_heaps_HeapMem_Module__id__C
  0000050e    0000050e    00000002   00000002    r-- .const:ti_sysbios_knl_Task_initStackFlag__C
  00000510    00000510    00000001   00000001    r-- .const:ti_sysbios_knl_Clock_tickMode__C
  00000514    00000514    00000008   00000008    r-- .const:xdc_runtime_Startup_firstFxns__C
  0000051c    0000051c    00000008   00000008    r-- .const:xdc_runtime_Startup_lastFxns__C
  00000524    00000524    00000004   00000004    r-- .const:xdc_runtime_Assert_E_assertFailed__C
  00000528    00000528    00000004   00000004    r-- .const:xdc_runtime_Error_E_memory__C
  0000052c    0000052c    00000004   00000004    r-- .const:xdc_runtime_Error_policyFxn__C
  00000530    00000530    00000004   00000004    r-- .const:xdc_runtime_IGateProvider_Interface__BASE__C
  00000534    00000534    00000004   00000004    r-- .const:xdc_runtime_IHeap_Interface__BASE__C
  00000538    00000538    00000004   00000004    r-- .const:xdc_runtime_IModule_Interface__BASE__C
  0000053c    0000053c    00000004   00000004    r-- .const:xdc_runtime_Main_Module__diagsEnabled__C
  00000540    00000540    00000004   00000004    r-- .const:xdc_runtime_Main_Module__diagsIncluded__C
  00000544    00000544    00000004   00000004    r-- .const:xdc_runtime_Main_Module__diagsMask__C
  00000548    00000548    00000004   00000004    r-- .const:xdc_runtime_Memory_defaultHeapInstance__C
  0000054c    0000054c    00000004   00000004    r-- .const:xdc_runtime_Startup_execImpl__C
  00000550    00000550    00000004   00000004    r-- .const:xdc_runtime_Startup_maxPasses__C
  00000554    00000554    00000004   00000004    r-- .const:xdc_runtime_Startup_sfxnRts__C
  00000558    00000558    00000004   00000004    r-- .const:xdc_runtime_Startup_sfxnTab__C
  0000055c    0000055c    00000004   00000004    r-- .const:xdc_runtime_Startup_startModsFxn__C
  00000560    00000560    00000004   00000004    r-- .const:xdc_runtime_SysCallback_abortFxn__C
  00000564    00000564    00000004   00000004    r-- .const:xdc_runtime_SysCallback_exitFxn__C
  00000568    00000568    00000004   00000004    r-- .const:xdc_runtime_System_abortFxn__C
  0000056c    0000056c    00000004   00000004    r-- .const:xdc_runtime_System_exitFxn__C
  00000570    00000570    00000004   00000004    r-- .const:xdc_runtime_System_maxAtexitHandlers__C
  00000574    00000574    00000004   00000004    r-- .const:xdc_runtime_Text_charTab__C
  00000578    00000578    00000004   00000004    r-- .const:xdc_runtime_Text_nameEmpty__C
  0000057c    0000057c    00000004   00000004    r-- .const:xdc_runtime_Text_nameStatic__C
  00000580    00000580    00000004   00000004    r-- .const:xdc_runtime_Text_nameUnknown__C
  00000584    00000584    00000002   00000002    r-- .const:xdc_runtime_Main_Module__id__C
  00000586    00000586    00000002   00000002    r-- .const:xdc_runtime_Memory_Module__id__C
  00000588    00000588    00000002   00000002    r-- .const:xdc_runtime_Text_charCnt__C
  0000058a    0000058a    00000002   00000002    r-- .const:xdc_runtime_Text_isLoaded__C
  0000058c    0000058c    00000001   00000001    r-- .const:xdc_runtime_Error_policy__C
  00000590    00000590    00000004   00000004    r-- .const:ti_sysbios_rom_ROM_AONRTCChannelEnable
  00000594    00000594    00000004   00000004    r-- .const:ti_sysbios_rom_ROM_AONRTCCompareValueSet
  00000598    00000598    00000004   00000004    r-- .const:ti_sysbios_rom_ROM_AONRTCCurrentCompareValueGet
  0000059c    0000059c    00000004   00000004    r-- .const:ti_sysbios_rom_ROM_AONRTCEventClear
  000005a0    000005a0    00000004   00000004    r-- .const:ti_sysbios_rom_ROM_ti_sysbios_family_arm_cc26xx_Timer_getCount64__E
  000005a4    000005a4    00000004   00000004    r-- .const:ti_sysbios_rom_ROM_ti_sysbios_family_arm_cc26xx_Timer_getCurrentTick__E
  000005a8    000005a8    00000004   00000004    r-- .const:ti_sysbios_rom_ROM_ti_sysbios_family_arm_cc26xx_Timer_getMaxTicks__E
  000005ac    000005ac    00000004   00000004    r-- .const:ti_sysbios_rom_ROM_ti_sysbios_family_arm_cc26xx_Timer_initDevice__I
  000005b0    000005b0    00000004   00000004    r-- .const:ti_sysbios_rom_ROM_ti_sysbios_family_arm_cc26xx_Timer_setNextTick__E
  000005b4    000005b4    00000004   00000004    r-- .const:ti_sysbios_rom_ROM_ti_sysbios_family_arm_cc26xx_Timer_setThreshold__I
  000005b8    000005b8    00000004   00000004    r-- .const:ti_sysbios_rom_ROM_ti_sysbios_family_arm_cc26xx_Timer_start__E
  000005bc    000005bc    00000004   00000004    r-- .const:ti_sysbios_rom_ROM_ti_sysbios_family_arm_cc26xx_TimestampProvider_get32__E
  000005c0    000005c0    00000004   00000004    r-- .const:ti_sysbios_rom_ROM_xdc_runtime_Startup_getState__I
  000005c4    000005c4    00000004   00000004    r-- .const:ti_sysbios_rom_ROM_xdc_runtime_System_SupportProxy_abort__E
  000005c8    000005c8    00000004   00000004    r-- .const:ti_sysbios_rom_ROM_xdc_runtime_System_SupportProxy_exit__E
  000005cc    000005cc    00000004   00000004    r-- .const:ti_sysbios_gates_GateMutex_Instance_State_sem__O
  000005d0    000005d0    00000004   00000004    r-- .const:ti_sysbios_knl_Clock_Module_State_clockQ__O
  000005d4    000005d4    00000004   00000004    r-- .const:ti_sysbios_knl_Mailbox_Instance_State_dataQue__O
  000005d8    000005d8    00000004   00000004    r-- .const:ti_sysbios_knl_Mailbox_Instance_State_dataSem__O
  000005dc    000005dc    00000004   00000004    r-- .const:ti_sysbios_knl_Mailbox_Instance_State_freeQue__O
  000005e0    000005e0    00000004   00000004    r-- .const:ti_sysbios_knl_Mailbox_Instance_State_freeSem__O
  000005e4    000005e4    00000004   00000004    r-- .const:ti_sysbios_knl_Semaphore_Instance_State_pendQ__O
  000005e8    000005e8    00000004   00000004    r-- .const:ti_sysbios_knl_Task_Module_State_inactiveQ__O
  000005ec    000005ec    000086ec   000086ec    r-x .text.4
  00008cd8    00008cd8    00001ef8   00001ef8    r-- .const
0000abd0    0000abd0    00000008   00000008    rw-
  0000abd0    0000abd0    00000008   00000008    rw- .args
0000abd8    0000abd8    000004c8   000004c8    r--
  0000abd8    0000abd8    000004c8   000004c8    r-- .cinit
0001ffa8    0001ffa8    00000058   00000058    r--
  0001ffa8    0001ffa8    00000058   00000058    r-- .ccfg
20000100    20000100    00002743   00000000    rw-
  20000100    20000100    00000044   00000000    rw- .data:ti_sysbios_knl_Task_Module__state__V
  20000144    20000144    00000034   00000000    rw- .data:ti_sysbios_family_arm_m3_Hwi_Module__state__V
  20000178    20000178    0000002c   00000000    rw- .data:ti_sysbios_knl_Clock_Module__state__V
  200001a4    200001a4    00000024   00000000    rw- .data:ti_sysbios_BIOS_Module__state__V
  200001c8    200001c8    0000001c   00000000    rw- .data:ti_sysbios_knl_Swi_Module__state__V
  200001e4    200001e4    00000008   00000000    rw- .data:ti_sysbios_family_arm_cc26xx_Timer_Module__state__V
  200001ec    200001ec    00000004   00000000    rw- .data:ti_sysbios_family_arm_cc26xx_TimestampProvider_Module__state__V
  200001f0    200001f0    00000008   00000000    rw- .data:xdc_runtime_Startup_Module__state__V
  200001f8    200001f8    00000008   00000000    rw- .data:xdc_runtime_System_Module__state__V
  20000200    20000200    00000004   00000000    rw- .data:xdc_runtime_Memory_Module__state__V
  20000208    20000208    00001852   00000000    rw- .data
  20001a60    20001a60    00000de3   00000000    rw- .bss
20003f48    20003f48    00000400   00000000    rw-
  20003f48    20003f48    00000400   00000000    rw- .stack


SECTION ALLOCATION MAP

 output                                  attributes/
section   page    origin      length       input sections
--------  ----  ----------  ----------   ----------------
.text.1    0    0000003c    000000c4     
                  0000003c    000000c0     adc_service.obj (.text:adc_service_ReadAttrCB$10)
                  000000fc    00000004     icall.obj (.text:ICall_primAbort$6)

.const:ti_sysbios_knl_Task_Object__PARAMS__C 
*          0    00000100    0000003c     
                  00000100    0000003c     app_ble_uartlog_pem3.oem3 (.const:ti_sysbios_knl_Task_Object__PARAMS__C)

.const:ti_sysbios_knl_Mailbox_Object__PARAMS__C 
*          0    0000013c    00000034     
                  0000013c    00000034     app_ble_uartlog_pem3.oem3 (.const:ti_sysbios_knl_Mailbox_Object__PARAMS__C)

.const:ti_sysbios_family_arm_m3_Hwi_Object__PARAMS__C 
*          0    00000170    00000030     
                  00000170    00000030     app_ble_uartlog_pem3.oem3 (.const:ti_sysbios_family_arm_m3_Hwi_Object__PARAMS__C)

.const:ti_sysbios_hal_Hwi_Object__PARAMS__C 
*          0    000001a0    0000002c     
                  000001a0    0000002c     app_ble_uartlog_pem3.oem3 (.const:ti_sysbios_hal_Hwi_Object__PARAMS__C)

.const:ti_sysbios_heaps_HeapMem_Module__FXNS__C 
*          0    000001cc    00000028     
                  000001cc    00000028     app_ble_uartlog_pem3.oem3 (.const:ti_sysbios_heaps_HeapMem_Module__FXNS__C)

.const:ti_sysbios_knl_Swi_Object__PARAMS__C 
*          0    000001f4    00000028     
                  000001f4    00000028     app_ble_uartlog_pem3.oem3 (.const:ti_sysbios_knl_Swi_Object__PARAMS__C)

.const:ti_sysbios_gates_GateHwi_Module__FXNS__C 
*          0    0000021c    00000024     
                  0000021c    00000024     app_ble_uartlog_pem3.oem3 (.const:ti_sysbios_gates_GateHwi_Module__FXNS__C)

.const:ti_sysbios_gates_GateMutex_Module__FXNS__C 
*          0    00000240    00000024     
                  00000240    00000024     app_ble_uartlog_pem3.oem3 (.const:ti_sysbios_gates_GateMutex_Module__FXNS__C)

.const:ti_sysbios_heaps_HeapMem_Object__PARAMS__C 
*          0    00000264    00000024     
                  00000264    00000024     app_ble_uartlog_pem3.oem3 (.const:ti_sysbios_heaps_HeapMem_Object__PARAMS__C)

.const:ti_sysbios_knl_Clock_Object__PARAMS__C 
*          0    00000288    00000024     
                  00000288    00000024     app_ble_uartlog_pem3.oem3 (.const:ti_sysbios_knl_Clock_Object__PARAMS__C)

.const:ti_sysbios_knl_Semaphore_Object__PARAMS__C 
*          0    000002ac    00000024     
                  000002ac    00000024     app_ble_uartlog_pem3.oem3 (.const:ti_sysbios_knl_Semaphore_Object__PARAMS__C)

.const:ti_sysbios_family_arm_m3_Hwi_Object__DESC__C 
*          0    000002d0    00000020     
                  000002d0    00000020     app_ble_uartlog_pem3.oem3 (.const:ti_sysbios_family_arm_m3_Hwi_Object__DESC__C)

.const:ti_sysbios_gates_GateHwi_Object__DESC__C 
*          0    000002f0    00000020     
                  000002f0    00000020     app_ble_uartlog_pem3.oem3 (.const:ti_sysbios_gates_GateHwi_Object__DESC__C)

.const:ti_sysbios_gates_GateMutex_Object__DESC__C 
*          0    00000310    00000020     
                  00000310    00000020     app_ble_uartlog_pem3.oem3 (.const:ti_sysbios_gates_GateMutex_Object__DESC__C)

.const:ti_sysbios_hal_Hwi_Object__DESC__C 
*          0    00000330    00000020     
                  00000330    00000020     app_ble_uartlog_pem3.oem3 (.const:ti_sysbios_hal_Hwi_Object__DESC__C)

.const:ti_sysbios_heaps_HeapMem_Object__DESC__C 
*          0    00000350    00000020     
                  00000350    00000020     app_ble_uartlog_pem3.oem3 (.const:ti_sysbios_heaps_HeapMem_Object__DESC__C)

.const:ti_sysbios_knl_Clock_Object__DESC__C 
*          0    00000370    00000020     
                  00000370    00000020     app_ble_uartlog_pem3.oem3 (.const:ti_sysbios_knl_Clock_Object__DESC__C)

.const:ti_sysbios_knl_Mailbox_Object__DESC__C 
*          0    00000390    00000020     
                  00000390    00000020     app_ble_uartlog_pem3.oem3 (.const:ti_sysbios_knl_Mailbox_Object__DESC__C)

.const:ti_sysbios_knl_Queue_Object__DESC__C 
*          0    000003b0    00000020     
                  000003b0    00000020     app_ble_uartlog_pem3.oem3 (.const:ti_sysbios_knl_Queue_Object__DESC__C)

.const:ti_sysbios_knl_Semaphore_Object__DESC__C 
*          0    000003d0    00000020     
                  000003d0    00000020     app_ble_uartlog_pem3.oem3 (.const:ti_sysbios_knl_Semaphore_Object__DESC__C)

.const:ti_sysbios_knl_Swi_Object__DESC__C 
*          0    000003f0    00000020     
                  000003f0    00000020     app_ble_uartlog_pem3.oem3 (.const:ti_sysbios_knl_Swi_Object__DESC__C)

.const:ti_sysbios_knl_Task_Object__DESC__C 
*          0    00000410    00000020     
                  00000410    00000020     app_ble_uartlog_pem3.oem3 (.const:ti_sysbios_knl_Task_Object__DESC__C)

.const:ti_sysbios_gates_GateHwi_Object__PARAMS__C 
*          0    00000430    00000018     
                  00000430    00000018     app_ble_uartlog_pem3.oem3 (.const:ti_sysbios_gates_GateHwi_Object__PARAMS__C)

.const:ti_sysbios_gates_GateMutex_Object__PARAMS__C 
*          0    00000448    00000018     
                  00000448    00000018     app_ble_uartlog_pem3.oem3 (.const:ti_sysbios_gates_GateMutex_Object__PARAMS__C)

.const:ti_sysbios_knl_Queue_Object__PARAMS__C 
*          0    00000460    00000018     
                  00000460    00000018     app_ble_uartlog_pem3.oem3 (.const:ti_sysbios_knl_Queue_Object__PARAMS__C)

.const:ti_sysbios_knl_Idle_funcList__C 
*          0    00000478    00000008     
                  00000478    00000008     app_ble_uartlog_pem3.oem3 (.const:ti_sysbios_knl_Idle_funcList__C)

.text.2    0    00000480    00000004     
                  00000480    00000004     drivers_cc26xxware.aem3 : List.oem3 (.text:List_head)

.const:ti_sysbios_family_arm_cc26xx_Timer_startupNeeded__C 
*          0    00000484    00000004     
                  00000484    00000004     app_ble_uartlog_pem3.oem3 (.const:ti_sysbios_family_arm_cc26xx_Timer_startupNeeded__C)

.const:ti_sysbios_family_arm_m3_Hwi_E_alreadyDefined__C 
*          0    00000488    00000004     
                  00000488    00000004     app_ble_uartlog_pem3.oem3 (.const:ti_sysbios_family_arm_m3_Hwi_E_alreadyDefined__C)

.const:ti_sysbios_family_arm_m3_Hwi_E_hwiLimitExceeded__C 
*          0    0000048c    00000004     
                  0000048c    00000004     app_ble_uartlog_pem3.oem3 (.const:ti_sysbios_family_arm_m3_Hwi_E_hwiLimitExceeded__C)

.const:ti_sysbios_family_arm_m3_Hwi_NUM_INTERRUPTS__C 
*          0    00000490    00000004     
                  00000490    00000004     app_ble_uartlog_pem3.oem3 (.const:ti_sysbios_family_arm_m3_Hwi_NUM_INTERRUPTS__C)

.const:ti_sysbios_family_arm_m3_Hwi_Object__count__C 
*          0    00000494    00000004     
                  00000494    00000004     app_ble_uartlog_pem3.oem3 (.const:ti_sysbios_family_arm_m3_Hwi_Object__count__C)

.const:ti_sysbios_family_arm_m3_Hwi_Object__table__C 
*          0    00000498    00000004     
                  00000498    00000004     app_ble_uartlog_pem3.oem3 (.const:ti_sysbios_family_arm_m3_Hwi_Object__table__C)

.const:ti_sysbios_family_arm_m3_Hwi_ccr__C 
*          0    0000049c    00000004     
                  0000049c    00000004     app_ble_uartlog_pem3.oem3 (.const:ti_sysbios_family_arm_m3_Hwi_ccr__C)

.const:ti_sysbios_family_arm_m3_Hwi_excHandlerFunc__C 
*          0    000004a0    00000004     
                  000004a0    00000004     app_ble_uartlog_pem3.oem3 (.const:ti_sysbios_family_arm_m3_Hwi_excHandlerFunc__C)

.const:ti_sysbios_family_arm_m3_Hwi_nullIsrFunc__C 
*          0    000004a4    00000004     
                  000004a4    00000004     app_ble_uartlog_pem3.oem3 (.const:ti_sysbios_family_arm_m3_Hwi_nullIsrFunc__C)

.const:ti_sysbios_family_arm_m3_Hwi_numSparseInterrupts__C 
*          0    000004a8    00000004     
                  000004a8    00000004     app_ble_uartlog_pem3.oem3 (.const:ti_sysbios_family_arm_m3_Hwi_numSparseInterrupts__C)

.const:ti_sysbios_family_arm_m3_Hwi_priGroup__C 
*          0    000004ac    00000004     
                  000004ac    00000004     app_ble_uartlog_pem3.oem3 (.const:ti_sysbios_family_arm_m3_Hwi_priGroup__C)

.const:ti_sysbios_family_arm_m3_TaskSupport_stackAlignment__C 
*          0    000004b0    00000004     
                  000004b0    00000004     app_ble_uartlog_pem3.oem3 (.const:ti_sysbios_family_arm_m3_TaskSupport_stackAlignment__C)

.const:ti_sysbios_heaps_HeapMem_E_memory__C 
*          0    000004b4    00000004     
                  000004b4    00000004     app_ble_uartlog_pem3.oem3 (.const:ti_sysbios_heaps_HeapMem_E_memory__C)

.const:ti_sysbios_heaps_HeapMem_Module__gateObj__C 
*          0    000004b8    00000004     
                  000004b8    00000004     app_ble_uartlog_pem3.oem3 (.const:ti_sysbios_heaps_HeapMem_Module__gateObj__C)

.const:ti_sysbios_heaps_HeapMem_Object__count__C 
*          0    000004bc    00000004     
                  000004bc    00000004     app_ble_uartlog_pem3.oem3 (.const:ti_sysbios_heaps_HeapMem_Object__count__C)

.const:ti_sysbios_heaps_HeapMem_Object__table__C 
*          0    000004c0    00000004     
                  000004c0    00000004     app_ble_uartlog_pem3.oem3 (.const:ti_sysbios_heaps_HeapMem_Object__table__C)

.const:ti_sysbios_heaps_HeapMem_reqAlign__C 
*          0    000004c4    00000004     
                  000004c4    00000004     app_ble_uartlog_pem3.oem3 (.const:ti_sysbios_heaps_HeapMem_reqAlign__C)

.const:ti_sysbios_knl_Clock_serviceMargin__C 
*          0    000004c8    00000004     
                  000004c8    00000004     app_ble_uartlog_pem3.oem3 (.const:ti_sysbios_knl_Clock_serviceMargin__C)

.const:ti_sysbios_knl_Mailbox_Object__count__C 
*          0    000004cc    00000004     
                  000004cc    00000004     app_ble_uartlog_pem3.oem3 (.const:ti_sysbios_knl_Mailbox_Object__count__C)

.const:ti_sysbios_knl_Mailbox_Object__table__C 
*          0    000004d0    00000004     
                  000004d0    00000004     app_ble_uartlog_pem3.oem3 (.const:ti_sysbios_knl_Mailbox_Object__table__C)

.const:ti_sysbios_knl_Queue_Object__count__C 
*          0    000004d4    00000004     
                  000004d4    00000004     app_ble_uartlog_pem3.oem3 (.const:ti_sysbios_knl_Queue_Object__count__C)

.const:ti_sysbios_knl_Queue_Object__table__C 
*          0    000004d8    00000004     
                  000004d8    00000004     app_ble_uartlog_pem3.oem3 (.const:ti_sysbios_knl_Queue_Object__table__C)

.const:ti_sysbios_knl_Swi_Object__count__C 
*          0    000004dc    00000004     
                  000004dc    00000004     app_ble_uartlog_pem3.oem3 (.const:ti_sysbios_knl_Swi_Object__count__C)

.const:ti_sysbios_knl_Swi_Object__table__C 
*          0    000004e0    00000004     
                  000004e0    00000004     app_ble_uartlog_pem3.oem3 (.const:ti_sysbios_knl_Swi_Object__table__C)

.const:ti_sysbios_knl_Swi_numPriorities__C 
*          0    000004e4    00000004     
                  000004e4    00000004     app_ble_uartlog_pem3.oem3 (.const:ti_sysbios_knl_Swi_numPriorities__C)

.const:ti_sysbios_knl_Task_Object__count__C 
*          0    000004e8    00000004     
                  000004e8    00000004     app_ble_uartlog_pem3.oem3 (.const:ti_sysbios_knl_Task_Object__count__C)

.const:ti_sysbios_knl_Task_Object__table__C 
*          0    000004ec    00000004     
                  000004ec    00000004     app_ble_uartlog_pem3.oem3 (.const:ti_sysbios_knl_Task_Object__table__C)

.const:ti_sysbios_knl_Task_allBlockedFunc__C 
*          0    000004f0    00000004     
                  000004f0    00000004     app_ble_uartlog_pem3.oem3 (.const:ti_sysbios_knl_Task_allBlockedFunc__C)

.const:ti_sysbios_knl_Task_defaultStackHeap__C 
*          0    000004f4    00000004     
                  000004f4    00000004     app_ble_uartlog_pem3.oem3 (.const:ti_sysbios_knl_Task_defaultStackHeap__C)

.const:ti_sysbios_knl_Task_defaultStackSize__C 
*          0    000004f8    00000004     
                  000004f8    00000004     app_ble_uartlog_pem3.oem3 (.const:ti_sysbios_knl_Task_defaultStackSize__C)

.const:ti_sysbios_knl_Task_numConstructedTasks__C 
*          0    000004fc    00000004     
                  000004fc    00000004     app_ble_uartlog_pem3.oem3 (.const:ti_sysbios_knl_Task_numConstructedTasks__C)

.text.3    0    00000500    00000002     
                  00000500    00000002     ble_user_config.obj (.text:DefaultAssertCback)

.const:ti_sysbios_family_arm_cc26xx_Timer_Module__id__C 
*          0    00000502    00000002     
                  00000502    00000002     app_ble_uartlog_pem3.oem3 (.const:ti_sysbios_family_arm_cc26xx_Timer_Module__id__C)

.const:ti_sysbios_family_arm_cc26xx_TimestampProvider_useClockTimer__C 
*          0    00000504    00000002     
                  00000504    00000002     app_ble_uartlog_pem3.oem3 (.const:ti_sysbios_family_arm_cc26xx_TimestampProvider_useClockTimer__C)

.const:ti_sysbios_family_arm_m3_Hwi_Module__id__C 
*          0    00000506    00000002     
                  00000506    00000002     app_ble_uartlog_pem3.oem3 (.const:ti_sysbios_family_arm_m3_Hwi_Module__id__C)

.const:ti_sysbios_gates_GateHwi_Module__id__C 
*          0    00000508    00000002     
                  00000508    00000002     app_ble_uartlog_pem3.oem3 (.const:ti_sysbios_gates_GateHwi_Module__id__C)

.const:ti_sysbios_gates_GateMutex_Module__id__C 
*          0    0000050a    00000002     
                  0000050a    00000002     app_ble_uartlog_pem3.oem3 (.const:ti_sysbios_gates_GateMutex_Module__id__C)

.const:ti_sysbios_heaps_HeapMem_Module__id__C 
*          0    0000050c    00000002     
                  0000050c    00000002     app_ble_uartlog_pem3.oem3 (.const:ti_sysbios_heaps_HeapMem_Module__id__C)

.const:ti_sysbios_knl_Task_initStackFlag__C 
*          0    0000050e    00000002     
                  0000050e    00000002     app_ble_uartlog_pem3.oem3 (.const:ti_sysbios_knl_Task_initStackFlag__C)

.const:ti_sysbios_knl_Clock_tickMode__C 
*          0    00000510    00000001     
                  00000510    00000001     app_ble_uartlog_pem3.oem3 (.const:ti_sysbios_knl_Clock_tickMode__C)

.const:xdc_runtime_Startup_firstFxns__C 
*          0    00000514    00000008     
                  00000514    00000008     app_ble_uartlog_pem3.oem3 (.const:xdc_runtime_Startup_firstFxns__C)

.const:xdc_runtime_Startup_lastFxns__C 
*          0    0000051c    00000008     
                  0000051c    00000008     app_ble_uartlog_pem3.oem3 (.const:xdc_runtime_Startup_lastFxns__C)

.const:xdc_runtime_Assert_E_assertFailed__C 
*          0    00000524    00000004     
                  00000524    00000004     app_ble_uartlog_pem3.oem3 (.const:xdc_runtime_Assert_E_assertFailed__C)

.const:xdc_runtime_Error_E_memory__C 
*          0    00000528    00000004     
                  00000528    00000004     app_ble_uartlog_pem3.oem3 (.const:xdc_runtime_Error_E_memory__C)

.const:xdc_runtime_Error_policyFxn__C 
*          0    0000052c    00000004     
                  0000052c    00000004     app_ble_uartlog_pem3.oem3 (.const:xdc_runtime_Error_policyFxn__C)

.const:xdc_runtime_IGateProvider_Interface__BASE__C 
*          0    00000530    00000004     
                  00000530    00000004     app_ble_uartlog_pem3.oem3 (.const:xdc_runtime_IGateProvider_Interface__BASE__C)

.const:xdc_runtime_IHeap_Interface__BASE__C 
*          0    00000534    00000004     
                  00000534    00000004     app_ble_uartlog_pem3.oem3 (.const:xdc_runtime_IHeap_Interface__BASE__C)

.const:xdc_runtime_IModule_Interface__BASE__C 
*          0    00000538    00000004     
                  00000538    00000004     app_ble_uartlog_pem3.oem3 (.const:xdc_runtime_IModule_Interface__BASE__C)

.const:xdc_runtime_Main_Module__diagsEnabled__C 
*          0    0000053c    00000004     
                  0000053c    00000004     app_ble_uartlog_pem3.oem3 (.const:xdc_runtime_Main_Module__diagsEnabled__C)

.const:xdc_runtime_Main_Module__diagsIncluded__C 
*          0    00000540    00000004     
                  00000540    00000004     app_ble_uartlog_pem3.oem3 (.const:xdc_runtime_Main_Module__diagsIncluded__C)

.const:xdc_runtime_Main_Module__diagsMask__C 
*          0    00000544    00000004     
                  00000544    00000004     app_ble_uartlog_pem3.oem3 (.const:xdc_runtime_Main_Module__diagsMask__C)

.const:xdc_runtime_Memory_defaultHeapInstance__C 
*          0    00000548    00000004     
                  00000548    00000004     app_ble_uartlog_pem3.oem3 (.const:xdc_runtime_Memory_defaultHeapInstance__C)

.const:xdc_runtime_Startup_execImpl__C 
*          0    0000054c    00000004     
                  0000054c    00000004     app_ble_uartlog_pem3.oem3 (.const:xdc_runtime_Startup_execImpl__C)

.const:xdc_runtime_Startup_maxPasses__C 
*          0    00000550    00000004     
                  00000550    00000004     app_ble_uartlog_pem3.oem3 (.const:xdc_runtime_Startup_maxPasses__C)

.const:xdc_runtime_Startup_sfxnRts__C 
*          0    00000554    00000004     
                  00000554    00000004     app_ble_uartlog_pem3.oem3 (.const:xdc_runtime_Startup_sfxnRts__C)

.const:xdc_runtime_Startup_sfxnTab__C 
*          0    00000558    00000004     
                  00000558    00000004     app_ble_uartlog_pem3.oem3 (.const:xdc_runtime_Startup_sfxnTab__C)

.const:xdc_runtime_Startup_startModsFxn__C 
*          0    0000055c    00000004     
                  0000055c    00000004     app_ble_uartlog_pem3.oem3 (.const:xdc_runtime_Startup_startModsFxn__C)

.const:xdc_runtime_SysCallback_abortFxn__C 
*          0    00000560    00000004     
                  00000560    00000004     app_ble_uartlog_pem3.oem3 (.const:xdc_runtime_SysCallback_abortFxn__C)

.const:xdc_runtime_SysCallback_exitFxn__C 
*          0    00000564    00000004     
                  00000564    00000004     app_ble_uartlog_pem3.oem3 (.const:xdc_runtime_SysCallback_exitFxn__C)

.const:xdc_runtime_System_abortFxn__C 
*          0    00000568    00000004     
                  00000568    00000004     app_ble_uartlog_pem3.oem3 (.const:xdc_runtime_System_abortFxn__C)

.const:xdc_runtime_System_exitFxn__C 
*          0    0000056c    00000004     
                  0000056c    00000004     app_ble_uartlog_pem3.oem3 (.const:xdc_runtime_System_exitFxn__C)

.const:xdc_runtime_System_maxAtexitHandlers__C 
*          0    00000570    00000004     
                  00000570    00000004     app_ble_uartlog_pem3.oem3 (.const:xdc_runtime_System_maxAtexitHandlers__C)

.const:xdc_runtime_Text_charTab__C 
*          0    00000574    00000004     
                  00000574    00000004     app_ble_uartlog_pem3.oem3 (.const:xdc_runtime_Text_charTab__C)

.const:xdc_runtime_Text_nameEmpty__C 
*          0    00000578    00000004     
                  00000578    00000004     app_ble_uartlog_pem3.oem3 (.const:xdc_runtime_Text_nameEmpty__C)

.const:xdc_runtime_Text_nameStatic__C 
*          0    0000057c    00000004     
                  0000057c    00000004     app_ble_uartlog_pem3.oem3 (.const:xdc_runtime_Text_nameStatic__C)

.const:xdc_runtime_Text_nameUnknown__C 
*          0    00000580    00000004     
                  00000580    00000004     app_ble_uartlog_pem3.oem3 (.const:xdc_runtime_Text_nameUnknown__C)

.const:xdc_runtime_Main_Module__id__C 
*          0    00000584    00000002     
                  00000584    00000002     app_ble_uartlog_pem3.oem3 (.const:xdc_runtime_Main_Module__id__C)

.const:xdc_runtime_Memory_Module__id__C 
*          0    00000586    00000002     
                  00000586    00000002     app_ble_uartlog_pem3.oem3 (.const:xdc_runtime_Memory_Module__id__C)

.const:xdc_runtime_Text_charCnt__C 
*          0    00000588    00000002     
                  00000588    00000002     app_ble_uartlog_pem3.oem3 (.const:xdc_runtime_Text_charCnt__C)

.const:xdc_runtime_Text_isLoaded__C 
*          0    0000058a    00000002     
                  0000058a    00000002     app_ble_uartlog_pem3.oem3 (.const:xdc_runtime_Text_isLoaded__C)

.const:xdc_runtime_Error_policy__C 
*          0    0000058c    00000001     
                  0000058c    00000001     app_ble_uartlog_pem3.oem3 (.const:xdc_runtime_Error_policy__C)

.const:ti_sysbios_rom_ROM_AONRTCChannelEnable 
*          0    00000590    00000004     
                  00000590    00000004     app_ble_uartlog_pem3.oem3 (.const:ti_sysbios_rom_ROM_AONRTCChannelEnable)

.const:ti_sysbios_rom_ROM_AONRTCCompareValueSet 
*          0    00000594    00000004     
                  00000594    00000004     app_ble_uartlog_pem3.oem3 (.const:ti_sysbios_rom_ROM_AONRTCCompareValueSet)

.const:ti_sysbios_rom_ROM_AONRTCCurrentCompareValueGet 
*          0    00000598    00000004     
                  00000598    00000004     app_ble_uartlog_pem3.oem3 (.const:ti_sysbios_rom_ROM_AONRTCCurrentCompareValueGet)

.const:ti_sysbios_rom_ROM_AONRTCEventClear 
*          0    0000059c    00000004     
                  0000059c    00000004     app_ble_uartlog_pem3.oem3 (.const:ti_sysbios_rom_ROM_AONRTCEventClear)

.const:ti_sysbios_rom_ROM_ti_sysbios_family_arm_cc26xx_Timer_getCount64__E 
*          0    000005a0    00000004     
                  000005a0    00000004     app_ble_uartlog_pem3.oem3 (.const:ti_sysbios_rom_ROM_ti_sysbios_family_arm_cc26xx_Timer_getCount64__E)

.const:ti_sysbios_rom_ROM_ti_sysbios_family_arm_cc26xx_Timer_getCurrentTick__E 
*          0    000005a4    00000004     
                  000005a4    00000004     app_ble_uartlog_pem3.oem3 (.const:ti_sysbios_rom_ROM_ti_sysbios_family_arm_cc26xx_Timer_getCurrentTick__E)

.const:ti_sysbios_rom_ROM_ti_sysbios_family_arm_cc26xx_Timer_getMaxTicks__E 
*          0    000005a8    00000004     
                  000005a8    00000004     app_ble_uartlog_pem3.oem3 (.const:ti_sysbios_rom_ROM_ti_sysbios_family_arm_cc26xx_Timer_getMaxTicks__E)

.const:ti_sysbios_rom_ROM_ti_sysbios_family_arm_cc26xx_Timer_initDevice__I 
*          0    000005ac    00000004     
                  000005ac    00000004     app_ble_uartlog_pem3.oem3 (.const:ti_sysbios_rom_ROM_ti_sysbios_family_arm_cc26xx_Timer_initDevice__I)

.const:ti_sysbios_rom_ROM_ti_sysbios_family_arm_cc26xx_Timer_setNextTick__E 
*          0    000005b0    00000004     
                  000005b0    00000004     app_ble_uartlog_pem3.oem3 (.const:ti_sysbios_rom_ROM_ti_sysbios_family_arm_cc26xx_Timer_setNextTick__E)

.const:ti_sysbios_rom_ROM_ti_sysbios_family_arm_cc26xx_Timer_setThreshold__I 
*          0    000005b4    00000004     
                  000005b4    00000004     app_ble_uartlog_pem3.oem3 (.const:ti_sysbios_rom_ROM_ti_sysbios_family_arm_cc26xx_Timer_setThreshold__I)

.const:ti_sysbios_rom_ROM_ti_sysbios_family_arm_cc26xx_Timer_start__E 
*          0    000005b8    00000004     
                  000005b8    00000004     app_ble_uartlog_pem3.oem3 (.const:ti_sysbios_rom_ROM_ti_sysbios_family_arm_cc26xx_Timer_start__E)

.const:ti_sysbios_rom_ROM_ti_sysbios_family_arm_cc26xx_TimestampProvider_get32__E 
*          0    000005bc    00000004     
                  000005bc    00000004     app_ble_uartlog_pem3.oem3 (.const:ti_sysbios_rom_ROM_ti_sysbios_family_arm_cc26xx_TimestampProvider_get32__E)

.const:ti_sysbios_rom_ROM_xdc_runtime_Startup_getState__I 
*          0    000005c0    00000004     
                  000005c0    00000004     app_ble_uartlog_pem3.oem3 (.const:ti_sysbios_rom_ROM_xdc_runtime_Startup_getState__I)

.const:ti_sysbios_rom_ROM_xdc_runtime_System_SupportProxy_abort__E 
*          0    000005c4    00000004     
                  000005c4    00000004     app_ble_uartlog_pem3.oem3 (.const:ti_sysbios_rom_ROM_xdc_runtime_System_SupportProxy_abort__E)

.const:ti_sysbios_rom_ROM_xdc_runtime_System_SupportProxy_exit__E 
*          0    000005c8    00000004     
                  000005c8    00000004     app_ble_uartlog_pem3.oem3 (.const:ti_sysbios_rom_ROM_xdc_runtime_System_SupportProxy_exit__E)

.const:ti_sysbios_gates_GateMutex_Instance_State_sem__O 
*          0    000005cc    00000004     
                  000005cc    00000004     app_ble_uartlog_pem3.oem3 (.const:ti_sysbios_gates_GateMutex_Instance_State_sem__O)

.const:ti_sysbios_knl_Clock_Module_State_clockQ__O 
*          0    000005d0    00000004     
                  000005d0    00000004     app_ble_uartlog_pem3.oem3 (.const:ti_sysbios_knl_Clock_Module_State_clockQ__O)

.const:ti_sysbios_knl_Mailbox_Instance_State_dataQue__O 
*          0    000005d4    00000004     
                  000005d4    00000004     app_ble_uartlog_pem3.oem3 (.const:ti_sysbios_knl_Mailbox_Instance_State_dataQue__O)

.const:ti_sysbios_knl_Mailbox_Instance_State_dataSem__O 
*          0    000005d8    00000004     
                  000005d8    00000004     app_ble_uartlog_pem3.oem3 (.const:ti_sysbios_knl_Mailbox_Instance_State_dataSem__O)

.const:ti_sysbios_knl_Mailbox_Instance_State_freeQue__O 
*          0    000005dc    00000004     
                  000005dc    00000004     app_ble_uartlog_pem3.oem3 (.const:ti_sysbios_knl_Mailbox_Instance_State_freeQue__O)

.const:ti_sysbios_knl_Mailbox_Instance_State_freeSem__O 
*          0    000005e0    00000004     
                  000005e0    00000004     app_ble_uartlog_pem3.oem3 (.const:ti_sysbios_knl_Mailbox_Instance_State_freeSem__O)

.const:ti_sysbios_knl_Semaphore_Instance_State_pendQ__O 
*          0    000005e4    00000004     
                  000005e4    00000004     app_ble_uartlog_pem3.oem3 (.const:ti_sysbios_knl_Semaphore_Instance_State_pendQ__O)

.const:ti_sysbios_knl_Task_Module_State_inactiveQ__O 
*          0    000005e8    00000004     
                  000005e8    00000004     app_ble_uartlog_pem3.oem3 (.const:ti_sysbios_knl_Task_Module_State_inactiveQ__O)

.text.4    0    000005ec    000086ec     
                  000005ec    0000097c     project_zero.obj (.text:ProjectZero_taskFxn$0)
                  00000f68    0000059c     peripheral.obj (.text:gapRole_taskFxn$15)
                  00001504    00000450     driverlib.lib : setup.obj (.text:TrimAfterColdResetWakeupFromShutDown$31)
                  00001954    000003d0     project_zero.obj (.text:ProjectZero_init$0)
                  00001d24    0000037c     rf_singleMode_cc26xxware.aem3 : RFCC26XX_singleMode.oem3 (.text:fsmActiveState)
                  000020a0    000002cc     interval_service.obj (.text:INTERVAL_Service_WriteAttrCB$14)
                  0000236c    00000270     scTask.obj (.text:SC_init)
                  000025dc    00000248     peripheral.obj (.text:GAPRole_SetParameter)
                  00002824    00000228     drivers_cc26xxware.aem3 : PowerCC26XX.oem3 (.text:Power_sleep)
                  00002a4c    00000218     driverlib.lib : sys_ctrl.obj (.text:NOROM_SysCtrlSetRechargeBeforePowerDown)
                  00002c64    00000204     interval_service.obj (.text:INTERVAL_Service_ReadAttrCB$14)
                  00002e68    000001d0     drivers_cc26xxware.aem3 : PowerCC26XX_calibrateRCOSC.oem3 (.text:calibrateRcoscHf1)
                  00003038    000001cc     interval_service.obj (.text:IntervalService_SetParameter)
                  00003204    000001cc     rf_singleMode_cc26xxware.aem3 : RFCC26XX_singleMode.oem3 (.text:abortCmd)
                  000033d0    000001c4     drivers_cc26xxware.aem3 : PINCC26XX.oem3 (.text:PIN_init)
                  00003594    000001b0     rf_singleMode_cc26xxware.aem3 : RFCC26XX_singleMode.oem3 (.text:RF_postCmd)
                  00003744    00000184     drivers_cc26xxware.aem3 : PowerCC26XX_calibrateRCOSC.oem3 (.text:PowerCC26XX_doCalibrate)
                  000038c8    00000170     adc_service.obj (.text:adc_service_WriteAttrCB$10)
                  00003a38    00000148     driverlib.lib : setup.obj (.text:NOROM_SetupTrimDevice)
                  00003b80    00000128     rf_singleMode_cc26xxware.aem3 : RFCC26XX_singleMode.oem3 (.text:rf_init)
                  00003ca8    00000120     peripheral.obj (.text:GAPRole_GetParameter)
                  00003dc8    0000011c     drivers_cc26xxware.aem3 : PowerCC26XX.oem3 (.text:Power_init)
                  00003ee4    00000118     rf_singleMode_cc26xxware.aem3 : RFCC26XX_singleMode.oem3 (.text:fsmSetupState)
                  00003ffc    00000118                                   : RFCC26XX_singleMode.oem3 (.text:hwiFxnCpe0Active)
                  00004114    00000106     icall.obj (.text:ICall_primWaitMatch$6)
                  0000421a    00000002     driverlib.lib : rfc.obj (.text:NOROM_RFCAdi3VcoLdoVoltageMode)
                  0000421c    000000f4     rtsv7M3_T_le_eabi.lib : fputc.c.obj (.text:fputc)
                  00004310    000000d8     rf_singleMode_cc26xxware.aem3 : RFCC26XX_singleMode.oem3 (.text:fsmPowerUpState)
                  000043e8    000000d4     drivers_cc26xxware.aem3 : PowerCC26XX.oem3 (.text:Power_releaseDependency)
                  000044bc    000000d4     rtsv7M3_T_le_eabi.lib : setvbuf.c.obj (.text:setvbuf)
                  00004590    000000d0     drivers_cc26xxware.aem3 : PowerCC26XX.oem3 (.text:Power_setDependency)
                  00004660    000000d0     main.obj (.text:main)
                  00004730    000000c4     rf_singleMode_cc26xxware.aem3 : RFCC26XX_singleMode.oem3 (.text:RF_open)
                  000047f4    000000bc     power_cc26xx_tirtos.aem3 : PowerCC26XX_tirtos.oem3 (.text:PowerCC26XX_standbyPolicy)
                  000048b0    000000bc     rtsv7M3_T_le_eabi.lib : fclose.c.obj (.text:__TI_closefile)
                  0000496c    000000b8     drivers_cc26xxware.aem3 : PINCC26XX.oem3 (.text:PINCC26XX_setIoCfg)
                  00004a24    000000b4     devinfoservice.obj (.text:devInfo_ReadAttrCB$11)
                  00004ad8    000000a8     scif_framework.obj (.text:scifCtrlTasksNbl$17)
                  00004b80    000000a8     rf_singleMode_cc26xxware.aem3 : RFCC26XX_singleMode.oem3 (.text:swiFxnHw)
                  00004c28    000000a0     TRNGCC26XX.obj (.text:TRNGCC26XX_getNumber)
                  00004cc8    000000a0     auto_init.aem3 : auto_init.oem3 (.text)
                  00004d68    0000009c     rtsv7M3_T_le_eabi.lib : memcpy_t2.asm.obj (.text)
                  00004e04    00000098     rom_sysbios.aem3 : rom_sysbios.obj (.text:ti_sysbios_knl_Clock_workFuncDynamic__E)
                  00004e9c    00000096     rtsv7M3_T_le_eabi.lib : ull_div_t2.asm.obj (.text)
                  00004f32    00000002     driverlib.lib : rfc.obj (.text:NOROM_RFCRTrim)
                  00004f34    00000094     icall.obj (.text:ICall_primSetTimer$6)
                  00004fc8    00000094     drivers_cc26xxware.aem3 : PINCC26XX.oem3 (.text:PIN_open)
                  0000505c    00000090                             : PowerCC26XX.oem3 (.text:switchXOSCHFclockFunc)
                  000050ec    00000088     driverlib.lib : osc.obj (.text:NOROM_OSCHF_GetStartupTime)
                  00005174    00000088     gattservapp_util.obj (.text:gattServApp_SendNotiInd$13)
                  000051fc    00000084     icall.obj (.text:ICall_heapMalloc)
                  00005280    00000080     rf_singleMode_cc26xxware.aem3 : RFCC26XX_singleMode.oem3 (.text:RF_pendCmd)
                  00005300    0000007c     drivers_cc26xxware.aem3 : PowerCC26XX.oem3 (.text:disableLFClockQualifiers)
                  0000537c    0000007c     peripheral.obj (.text:gapRole_startConnUpdate$15)
                  000053f8    0000007c     uart_logs.obj (.text:uartLog_outputFxn)
                  00005474    0000007c     project_zero.obj (.text:user_processGapStateChangeEvt$0)
                  000054f0    0000007a     rtsv7M3_T_le_eabi.lib : memset_t2.asm.obj (.text)
                  0000556a    00000002     scTask.obj (.text:SC_rangerClockSwiFxn$1)
                  0000556c    00000078     gattservapp_util.obj (.text:GATTServApp_ProcessCharCfg)
                  000055e4    00000074     adc_service.obj (.text:Adc_service_SetParameter)
                  00005658    00000074     icall_cc2650.obj (.text:ICallPlatform_pwrUpdActivityCounter)
                  000056cc    00000074     icall.obj (.text:ICall_primSend$6)
                  00005740    00000074     drivers_cc26xxware.aem3 : PowerCC26XX_calibrateRCOSC.oem3 (.text:PowerCC26XX_auxISR)
                  000057b4    00000074                             : PowerCC26XX_calibrateRCOSC.oem3 (.text:calibrateRcoscHf2)
                  00005828    00000074     rf_singleMode_cc26xxware.aem3 : RFCC26XX_singleMode.oem3 (.text:fsmPowerDownState)
                  0000589c    00000074     rom_sysbios.aem3 : rom_sysbios.obj (.text:ti_sysbios_family_arm_cc26xx_Timer_start__E)
                  00005910    00000070     rtsv7M3_T_le_eabi.lib : fseek.c.obj (.text:fseek)
                  00005980    0000006c     icall.obj (.text:ICall_createRemoteTasks)
                  000059ec    0000006c     drivers_cc26xxware.aem3 : PowerCC26XX.oem3 (.text:PowerCC26XX_calibrate)
                  00005a58    00000068     rtsv7M3_T_le_eabi.lib : hostlseek.c.obj (.text:HOSTlseek)
                  00005ac0    00000068     driverlib.lib : sys_ctrl.obj (.text:NOROM_SysCtrl_DCDC_VoltageConditionalControl)
                  00005b28    00000068     rf_singleMode_cc26xxware.aem3 : RFCC26XX_singleMode.oem3 (.text:RF_getCurrentTime)
                  00005b90    00000068                                   : RFCC26XX_singleMode.oem3 (.text:RF_getInfo)
                  00005bf8    00000068     project_zero.obj (.text:Util_convertArrayToHexString$0)
                  00005c60    00000068     rtsv7M3_T_le_eabi.lib : copy_decompress_lzss.c.obj (.text:decompress:lzss:__TI_decompress_lzss)
                  00005cc8    00000068                           : getdevice.c.obj (.text:getdevice)
                  00005d30    00000064                           : hostrename.c.obj (.text:HOSTrename)
                  00005d94    00000064     rf_singleMode_cc26xxware.aem3 : RFCC26XX_singleMode.oem3 (.text:decActiveClientCnt)
                  00005df8    00000060     icall.obj (.text:ICall_primEnroll$6)
                  00005e58    00000060     drivers_cc26xxware.aem3 : PowerCC26XX_calibrateRCOSC.oem3 (.text:PowerCC26XX_RCOSC_clockFunc)
                  00005eb8    00000060                             : PowerCC26XX_calibrateRCOSC.oem3 (.text:updateSubSecInc)
                  00005f18    0000005c     rtsv7M3_T_le_eabi.lib : hostopen.c.obj (.text:HOSTopen)
                  00005f74    0000005c     icall.obj (.text:ICall_primThreadServes$6)
                  00005fd0    0000005c     driverlib.lib : osc.obj (.text:NOROM_OSCHF_AttemptToSwitchToXosc)
                  0000602c    0000005c                   : sys_ctrl.obj (.text:NOROM_SysCtrlAdjustRechargeAfterPowerDown)
                  00006088    0000005c     app_ble_uartlog_pem3.oem3 (.text:xdc_runtime_Startup_getState__I)
                  000060e4    00000058     rtsv7M3_T_le_eabi.lib : hostread.c.obj (.text:HOSTread)
                  0000613c    00000058     drivers_cc26xxware.aem3 : PowerCC26XX_calibrateRCOSC.oem3 (.text:PowerCC26XX_initiateCalibration)
                  00006194    00000058     rf_singleMode_cc26xxware.aem3 : RFCC26XX_singleMode.oem3 (.text:fsmXOSCState)
                  000061ec    00000058     project_zero.obj (.text:user_enqueueCharDataMsg)
                  00006244    00000054     rtsv7M3_T_le_eabi.lib : hostwrite.c.obj (.text:HOSTwrite)
                  00006298    00000054     icall.obj (.text:ICall_primFetchMsg$6)
                  000062ec    00000054     drivers_cc26xxware.aem3 : PowerCC26XX.oem3 (.text:configureXOSCHF)
                  00006340    00000054     rf_singleMode_cc26xxware.aem3 : RFCC26XX_singleMode.oem3 (.text:dispatchOpWhen)
                  00006394    00000054     rtsv7M3_T_le_eabi.lib : fflush.c.obj (.text:fflush)
                  000063e8    00000054     rf_singleMode_cc26xxware.aem3 : RFCC26XX_singleMode.oem3 (.text:hwiFxnHw)
                  0000643c    00000054                                   : RFCC26XX_singleMode.oem3 (.text:ratChanFree)
                  00006490    00000052     icall.obj (.text:ICall_primWait$6)
                  000064e2    00000002     rtsv7M3_T_le_eabi.lib : _lock.c.obj (.text:_nop)
                  000064e4    00000050     icall_api.obj (.text:GAP_UpdateAdvertisingData)
                  00006534    00000050     icall.obj (.text:ICall_primRegisterApp$6)
                  00006584    00000050     util.obj (.text:Util_convertBdAddr2Str)
                  000065d4    00000050     rf_singleMode_cc26xxware.aem3 : RFCC26XX_singleMode.oem3 (.text:syncCb)
                  00006624    0000004c     icall.obj (.text:ICall_newTask$6)
                  00006670    0000004c     icall.obj (.text:ICall_primGetEntityId$6)
                  000066bc    0000004c     driverlib.lib : osc.obj (.text:NOROM_OSCClockSourceSet)
                  00006708    0000004c     rtsv7M3_T_le_eabi.lib : fflush.c.obj (.text:__TI_doflush)
                  00006754    0000004c     rf_singleMode_cc26xxware.aem3 : RFCC26XX_singleMode.oem3 (.text:applyRfCorePatch)
                  000067a0    0000004c     rtsv7M3_T_le_eabi.lib : cpy_tbl.c.obj (.text:copy_in)
                  000067ec    00000048     peripheral.obj (.text:GAPRole_TerminateConnection)
                  00006834    00000048     driverlib.lib : chipinfo.obj (.text:NOROM_ChipInfo_GetChipFamily)
                  0000687c    00000048                   : ddi.obj (.text:NOROM_DDI16BitfieldWrite)
                  000068c4    00000048     drivers_cc26xxware.aem3 : PINCC26XX.oem3 (.text:PIN_swi)
                  0000690c    00000048     rf_singleMode_cc26xxware.aem3 : RFCC26XX_singleMode.oem3 (.text:RF_getRssi)
                  00006954    00000048                                   : RFCC26XX_singleMode.oem3 (.text:RF_runCmd)
                  0000699c    00000048     icall_api.obj (.text:gattIndNoti$9)
                  000069e4    00000048     drivers_cc26xxware.aem3 : PowerCC26XX.oem3 (.text:notify)
                  00006a2c    00000048     scif_framework.obj (.text:scifInitIo)
                  00006a74    00000044     main.obj (.text:AssertHandler)
                  00006ab8    00000044     boot.aem3 : boot.oem3 (.text)
                  00006afc    00000044     icall_api.obj (.text:gapSendParamAndPtrCmd$9)
                  00006b40    00000044     project_zero.obj (.text:user_enqueueRawAppMsg)
                  00006b84    00000044     rom_sysbios.aem3 : rom_sysbios.obj (.text:xdc_runtime_LoggerCallback_write8__E)
                  00006bc8    00000042     icall.obj (.text:ICall_primCreateTask$6)
                  00006c0a    00000002     rf_singleMode_cc26xxware.aem3 : RFCC26XX_singleMode.oem3 (.text:defaultErrCb)
                  00006c0c    00000040     peripheral.obj (.text:GAPRole_createTask)
                  00006c4c    00000040     rtsv7M3_T_le_eabi.lib : hostclose.c.obj (.text:HOSTclose)
                  00006c8c    00000040                           : hostunlink.c.obj (.text:HOSTunlink)
                  00006ccc    00000040     driverlib.lib : ddi.obj (.text:NOROM_DDI16BitfieldRead)
                  00006d0c    00000040     rom_sysbios.aem3 : rom_sysbios.obj (.text:xdc_runtime_LoggerCallback_Module_startup__E)
                  00006d4c    0000003e     icall_api.obj (.text:hciSendParamsCmd$9)
                  00006d8a    00000002     drivers_cc26xxware.aem3 : PowerCC26XX.oem3 (.text:emptyClockFunc)
                  00006d8c    0000003c     icall_api.obj (.text:GAP_GetParamValue)
                  00006dc8    0000003c     icall_api.obj (.text:GATTServApp_RegisterService)
                  00006e04    0000003c     icall_cc2650.obj (.text:ICallPlatform_pwrConfigACAction)
                  00006e40    0000003c     icall.obj (.text:ICall_primFetchServiceMsg$6)
                  00006e7c    0000003c     driverlib.lib : osc.obj (.text:NOROM_OSC_HPOSCRelativeFrequencyOffsetGet)
                  00006eb8    0000003c                   : rfc.obj (.text:NOROM_RFCSynthPowerDown)
                  00006ef4    0000003c     drivers_cc26xxware.aem3 : PINCC26XX.oem3 (.text:PIN_setOutputValue)
                  00006f30    0000003c     project_zero.obj (.text:ProjectZero_createTask)
                  00006f6c    0000003c     rf_singleMode_cc26xxware.aem3 : RFCC26XX_singleMode.oem3 (.text:postDirImmCmd)
                  00006fa8    0000003c     icall_api.obj (.text:profileSetParameter$9)
                  00006fe4    0000003c     icall_api.obj (.text:sendWaitMatchCS$9)
                  00007020    0000003c     icall_api.obj (.text:sendWaitMatchValueCS$9)
                  0000705c    00000038     icall.obj (.text:ICall_primGetMaxMSecs$6)
                  00007094    00000038     util.obj (.text:Util_restartClock)
                  000070cc    00000038     rtsv7M3_T_le_eabi.lib : trgmsg.c.obj (.text:__TI_writemsg)
                  00007104    00000038     scif_framework.obj (.text:scifOsalInit)
                  0000713c    00000038     rom_sysbios.aem3 : rom_sysbios.obj (.text:ti_sysbios_family_arm_cc26xx_Timer_getCurrentTick__E)
                  00007174    00000036     rf_singleMode_cc26xxware.aem3 : RFCC26XX_singleMode.oem3 (.text:updateImplicitState)
                  000071aa    00000036     icall_api.obj (.text:waitMatchCS$9)
                  000071e0    00000034     icall_api.obj (.text:GAPBondMgr_SetParameter)
                  00007214    00000034     icall_api.obj (.text:GAP_SetParamValue)
                  00007248    00000034     icall.obj (.text:ICall_primEntityId2ServiceId$6)
                  0000727c    00000034     icall.obj (.text:ICall_primRegisterISR$6)
                  000072b0    00000034     icall.obj (.text:ICall_primRegisterISR_Ext$6)
                  000072e4    00000034     icall.obj (.text:ICall_searchServiceEntity)
                  00007318    00000034     interval_service.obj (.text:INTERVAL_Service_findCharParamId$14)
                  0000734c    00000034     driverlib.lib : ddi.obj (.text:NOROM_DDI32RegWrite)
                  00007380    00000034                   : osc.obj (.text:NOROM_OSCHF_SwitchToRcOscTurnOffXosc)
                  000073b4    00000034     drivers_cc26xxware.aem3 : PINCC26XX.oem3 (.text:PIN_setConfig)
                  000073e8    00000034                             : PowerCC26XX.oem3 (.text:PowerCC26XX_isStableXOSC_HF)
                  0000741c    00000034     rf_singleMode_cc26xxware.aem3 : RFCC26XX_singleMode.oem3 (.text:Q_push)
                  00007450    00000034     util.obj (.text:Util_constructClock)
                  00007484    00000034     rtsv7M3_T_le_eabi.lib : trgmsg.c.obj (.text:__TI_readmsg)
                  000074b8    00000034     scif_framework.obj (.text:osalRegisterCtrlReadyInt$17)
                  000074ec    00000034     scif_framework.obj (.text:osalRegisterTaskAlertInt$17)
                  00007520    00000034     icall_api.obj (.text:osal_snv_read)
                  00007554    00000034     icall_api.obj (.text:osal_snv_write)
                  00007588    00000034     icall_api.obj (.text:profileAddService$9)
                  000075bc    00000034     icall_api.obj (.text:registerTask$9)
                  000075f0    00000034     rtsv7M3_T_le_eabi.lib : strncpy.c.obj (.text:strncpy)
                  00007624    00000034     rom_sysbios.aem3 : rom_sysbios.obj (.text:ti_sysbios_family_arm_cc26xx_Timer_initDevice__I)
                  00007658    00000034                      : rom_sysbios.obj (.text:xdc_runtime_LoggerCallback_write4__E)
                  0000768c    00000032     icall_api.obj (.text:gapSendParamsCmd$9)
                  000076be    00000032     icall_api.obj (.text:gapSendPtrParamsCmd$9)
                  000076f0    00000032     icall_api.obj (.text:matchGapSetGetParamCS$9)
                  00007722    00000032     icall_api.obj (.text:matchGattCmdStatus$9)
                  00007754    00000032     icall_api.obj (.text:matchUtilNvCS$9)
                  00007786    00000032     rom_sysbios.aem3 : rom_sysbios.obj (.text:ti_sysbios_family_arm_cc26xx_Timer_setNextTick__E)
                  000077b8    00000030     icall_cc2650.obj (.text:ICallPlatform_pwrNotify$7)
                  000077e8    00000030     icall_cc2650.obj (.text:ICallPlatform_pwrRegisterNotify)
                  00007818    00000030     icall.obj (.text:ICall_dispatch$6)
                  00007848    00000030     icall.obj (.text:ICall_msecs2Ticks$6)
                  00007878    00000030     icall.obj (.text:ICall_searchTask$6)
                  000078a8    00000030     driverlib.lib : setup.obj (.text:NOROM_SetupSetAonRtcSubSecInc)
                  000078d8    00000030                   : trng.obj (.text:NOROM_TRNGConfigure)
                  00007908    00000030     drivers_cc26xxware.aem3 : PowerCC26XX.oem3 (.text:Power_releaseConstraint)
                  00007938    00000030                             : PowerCC26XX.oem3 (.text:Power_setConstraint)
                  00007968    00000030     rf_singleMode_cc26xxware.aem3 : RFCC26XX_singleMode.oem3 (.text:clkPowerUpFxn)
                  00007998    00000030     app_ble_uartlog_pem3.oem3 (.text:ti_sysbios_BIOS_atExitFunc__I)
                  000079c8    00000030     app_ble_uartlog_pem3.oem3 (.text:ti_sysbios_BIOS_startFunc__I)
                  000079f8    00000030     rom_sysbios.aem3 : rom_sysbios.obj (.text:ti_sysbios_family_arm_cc26xx_Timer_setThreshold__I)
                  00007a28    00000030     app_ble_uartlog_pem3.oem3 (.text:xdc_runtime_LoggerCallback_Object__create__S)
                  00007a58    0000002e     icall_cc2650.obj (.text:ICallPlatform_pwrDispenseImpl$7)
                  00007a86    0000002e     icall_cc2650.obj (.text:ICallPlatform_pwrRequireImpl$7)
                  00007ab4    0000002e     app_ble_uartlog_pem3.oem3 (.text:malloc)
                  00007ae2    00000002     rtsv7M3_T_le_eabi.lib : div0.asm.obj (.text)
                  00007ae4    0000002c     icall_api.obj (.text:HCI_EXT_ConnEventNoticeCmd)
                  00007b10    0000002c     icall.obj (.text:ICall_heapFree)
                  00007b3c    0000002c     adc_service.obj (.text:ICall_malloc$10)
                  00007b68    0000002c     icall.obj (.text:ICall_msgEnqueue$6)
                  00007b94    0000002c     icall.obj (.text:ICall_primAllocMsg$6)
                  00007bc0    0000002c     icall_api.obj (.text:ICall_sendServiceMsg$9)
                  00007bec    0000002c     project_zero.obj (.text:ProjectZero_freeAttRsp$0)
                  00007c18    0000002c     rtsv7M3_T_le_eabi.lib : fopen.c.obj (.text:__TI_cleanup)
                  00007c44    0000002c     rf_singleMode_cc26xxware.aem3 : RFCC26XX_singleMode.oem3 (.text:getCmd)
                  00007c70    0000002c     icall_api.obj (.text:matchProfileAddServiceCS$9)
                  00007c9c    0000002c     rom_sysbios.aem3 : rom_sysbios.obj (.text:ti_sysbios_knl_Clock_getTicksUntilInterrupt__E)
                  00007cc8    0000002c                      : rom_sysbios.obj (.text:xdc_runtime_LoggerCallback_write2__E)
                  00007cf4    0000002a     icall_api.obj (.text:ICall_waitMatch$9)
                  00007d1e    0000002a     icall_api.obj (.text:matchProfileCS$9)
                  00007d48    00000028     driverlib.lib : aon_batmon.obj (.text:NOROM_AONBatMonTemperatureGetDegC)
                  00007d70    00000028                   : rfc.obj (.text:NOROM_RFCDoorbellSendTo)
                  00007d98    00000028     drivers_cc26xxware.aem3 : PowerCC26XX.oem3 (.text:PowerCC26XX_switchXOSC_HF)
                  00007dc0    00000028                             : PowerCC26XX.oem3 (.text:Power_registerNotify)
                  00007de8    00000028     driverlib.lib : adi.obj (.text:SafeHapiVoid)
                  00007e10    00000028     TRNGCC26XX.obj (.text:TRNGCC26XX_init)
                  00007e38    00000028     scif_framework.obj (.text:osalCtrlReadyIsr$17)
                  00007e60    00000028     rtsv7M3_T_le_eabi.lib : unlink.c.obj (.text:unlink)
                  00007e88    00000028                           : write.c.obj (.text:write)
                  00007eb0    00000028     rom_sysbios.aem3 : rom_sysbios.obj (.text:xdc_runtime_LoggerCallback_write0__E)
                  00007ed8    00000028                      : rom_sysbios.obj (.text:xdc_runtime_LoggerCallback_write1__E)
                  00007f00    00000026     drivers_cc26xxware.aem3 : List.oem3 (.text:List_put)
                  00007f26    00000024     icall_api.obj (.text:ICall_getLocalMsgEntityId$9)
                  00007f4a    00000002     rom_sysbios.aem3 : rom_sysbios.obj (.text:ti_sysbios_BIOS_linkedWithIncorrectBootLibrary__E)
                  00007f4c    00000024     drivers_cc26xxware.aem3 : PINCC26XX.oem3 (.text:PINCC26XX_getPinCount)
                  00007f70    00000024                             : PowerCC26XX_calibrateRCOSC.oem3 (.text:getTdcSemaphore)
                  00007f94    00000024     rf_singleMode_cc26xxware.aem3 : RFCC26XX_singleMode.oem3 (.text:hwiFxnCpe0PowerFsm)
                  00007fb8    00000024     rtsv7M3_T_le_eabi.lib : memcmp.c.obj (.text:memcmp)
                  00007fdc    00000024     scif.obj (.text:scifTaskResourceInit$16)
                  00008000    00000024     app_ble_uartlog_pem3.oem3 (.text:ti_sysbios_BIOS_registerRTSLock__I)
                  00008024    00000024     app_ble_uartlog_pem3.oem3 (.text:ti_sysbios_BIOS_removeRTSLock__I)
                  00008048    00000024     rom_sysbios.aem3 : rom_sysbios.obj (.text:ti_sysbios_family_arm_cc26xx_Timer_getMaxTicks__E)
                  0000806c    00000020     gattservapp_util.obj (.text:GATTServApp_InitCharCfg)
                  0000808c    00000020     icall_api.obj (.text:ICall_allocMsg$9)
                  000080ac    00000020     icall_api.obj (.text:ICall_getEntityId$9)
                  000080cc    00000020     project_zero.obj (.text:ICall_malloc$0)
                  000080ec    00000020     icall.obj (.text:ICall_primService$6)
                  0000810c    00000020     driverlib.lib : rfc.obj (.text:NOROM_RFCRfTrimRead)
                  0000812c    00000020     rf_singleMode_cc26xxware.aem3 : RFCC26XX_singleMode.oem3 (.text:allocCmd)
                  0000814c    00000020     gattservapp_util.obj (.text:gattServApp_FindCharCfgItem$13)
                  0000816c    00000020     app_ble_uartlog_pem3.oem3 (.text:ti_sysbios_BIOS_rtsLock__I)
                  0000818c    00000020     rom_sysbios.aem3 : rom_sysbios.obj (.text:ti_sysbios_family_arm_cc26xx_Timer_dynamicStub__E)
                  000081ac    00000020                      : rom_sysbios.obj (.text:ti_sysbios_knl_Clock_stop__E)
                  000081cc    00000020                      : rom_sysbios.obj (.text:xdc_runtime_SysStd_abort__E)
                  000081ec    0000001e     icall.obj (.text:ICall_primSendServiceMsg$6)
                  0000820a    0000001e     drivers_cc26xxware.aem3 : PowerCC26XX.oem3 (.text:Power_getTransitionLatency)
                  00008228    0000001e     icall_api.obj (.text:matchHciCS$9)
                  00008246    0000001e     project_zero.obj (.text:user_gapBondMgr_passcodeCB$0)
                  00008264    0000001c     driverlib.lib : osc.obj (.text:NOROM_OSCClockSourceGet)
                  00008280    0000001c     drivers_cc26xxware.aem3 : PINCC26XX.oem3 (.text:PINCC26XX_setIoCfgMux)
                  0000829c    0000001c                             : PINCC26XX.oem3 (.text:PIN_hwi)
                  000082b8    0000001c     TRNGCC26XX.obj (.text:TRNGCC26XX_open)
                  000082d4    0000001c     icall_api.obj (.text:getStatusValueFromErrNo$9)
                  000082f0    0000001c     TRNGCC26XX.obj (.text:openTRNG)
                  0000830c    0000001c     scif.obj (.text:scifTaskResourceUninit$16)
                  00008328    0000001c     rom_sysbios.aem3 : rom_sysbios.obj (.text:ti_sysbios_family_arm_m3_Hwi_clearInterrupt__E)
                  00008344    0000001c                      : rom_sysbios.obj (.text:xdc_runtime_LoggerCallback_Instance_init__E)
                  00008360    0000001a     icall.obj (.text:ICall_enterCSImpl)
                  0000837a    0000001a     icall.obj (.text:ICall_primSetTimerMSecs$6)
                  00008394    0000001a     icall_api.obj (.text:matchGattIndNotiCS$9)
                  000083ae    00000002     app_ble_uartlog_pem3.oem3 (.text:ti_sysbios_BIOS_nullFunc__I)
                  000083b0    00000018     icall_api.obj (.text:GATT_bm_free)
                  000083c8    00000018     icall_cc2650.obj (.text:ICallPlatform_pwrDispense)
                  000083e0    00000018     icall_cc2650.obj (.text:ICallPlatform_pwrRequire)
                  000083f8    00000018     project_zero.obj (.text:ICall_freeMsg$0)
                  00008410    00000018     icall_api.obj (.text:ICall_freeMsg$9)
                  00008428    00000018     icall.obj (.text:ICall_primMalloc$6)
                  00008440    00000018     driverlib.lib : aon_rtc.obj (.text:NOROM_AONRTCCurrentCompareValueGet)
                  00008458    00000018                   : chipinfo.obj (.text:NOROM_ChipInfo_GetPackageType)
                  00008470    00000018                   : osc.obj (.text:NOROM_OSCHF_TurnOnXosc)
                  00008488    00000018                   : rfc.obj (.text:NOROM_RFCCpeIntGetAndClear)
                  000084a0    00000018     drivers_cc26xxware.aem3 : PowerCC26XX.oem3 (.text:Power_idleFunc)
                  000084b8    00000018     rf_singleMode_cc26xxware.aem3 : RFCC26XX_singleMode.oem3 (.text:Q_pop)
                  000084d0    00000018                                   : RFCC26XX_singleMode.oem3 (.text:RF_runDirectCmd)
                  000084e8    00000018                                   : RFCC26XX_singleMode.oem3 (.text:RF_runImmediateCmd)
                  00008500    00000018     rtsv7M3_T_le_eabi.lib : args_main.c.obj (.text:_args_main)
                  00008518    00000018     drivers_cc26xxware.aem3 : PowerCC26XX.oem3 (.text:configureRFCoreClocks)
                  00008530    00000018     app_ble_uartlog_pem3.oem3 (.text:free)
                  00008548    00000018     peripheral.obj (.text:gapRole_setEvent$15)
                  00008560    00000018     scif_framework.obj (.text:osalTaskAlertIsr$17)
                  00008578    00000018     rtsv7M3_T_le_eabi.lib : ll_mul_t2.asm.obj (.text)
                  00008590    00000018     scif_framework.obj (.text:scifReinitIo)
                  000085a8    00000018     scif_framework.obj (.text:scifUninitIo)
                  000085c0    00000018     rtsv7M3_T_le_eabi.lib : strcmp.c.obj (.text:strcmp)
                  000085d8    00000018     rf_singleMode_cc26xxware.aem3 : RFCC26XX_singleMode.oem3 (.text:swiFxnFsm)
                  000085f0    00000018     app_ble_uartlog_pem3.oem3 (.text:ti_sysbios_BIOS_rtsUnlock__I)
                  00008608    00000018     rom_sysbios.aem3 : rom_sysbios.obj (.text:ti_sysbios_knl_Swi_or__E)
                  00008620    00000018     app_ble_uartlog_pem3.oem3 (.text:ti_sysbios_rom_cortexm_cc26xx_CC26xx_checkRevision__E)
                  00008638    00000016     icall.obj (.text:ICall_leaveCSImpl)
                  0000864e    00000016     icall.obj (.text:ICall_primStopTimer$6)
                  00008664    00000016     ble_user_config.obj (.text:driverTable_fnSpinlock)
                  0000867a    00000016     rtsv7M3_T_le_eabi.lib : strchr.c.obj (.text:strchr)
                  00008690    00000016     app_ble_uartlog_pem3.oem3 (.text:ti_sysbios_BIOS_exitFunc__I)
                  000086a6    00000016     project_zero.obj (.text:user_service_ValueChangeCB$0)
                  000086bc    00000014     driverlib.lib : aon_rtc.obj (.text:NOROM_AONRTCCurrent64BitValueGet)
                  000086d0    00000014     rf_singleMode_cc26xxware.aem3 : RFCC26XX_singleMode.oem3 (.text:RF_Params_init)
                  000086e4    00000014     icall_api.obj (.text:setICallCmdEvtHdr$9)
                  000086f8    00000014     rtsv7M3_T_le_eabi.lib : strlen.c.obj (.text:strlen)
                  0000870c    00000014     app_ble_uartlog_pem3.oem3 (.text:ti_sysbios_knl_Clock_doTick__I)
                  00008720    00000012     rf_singleMode_cc26xxware.aem3 : RFCC26XX_singleMode.oem3 (.text:RF_getCmdOp)
                  00008732    00000012     rtsv7M3_T_le_eabi.lib : strcpy.c.obj (.text:strcpy)
                  00008744    00000012     project_zero.obj (.text:user_gapStateChangeCB$0)
                  00008756    00000012     app_ble_uartlog_pem3.oem3 (.text:xdc_runtime_Startup_exec__I)
                  00008768    00000010     rf_singleMode_cc26xxware.aem3 : RFCC26XX_singleMode.oem3 (.text:FsmDispatch)
                  00008778    00000010     icall_api.obj (.text:GAP_EndDiscoverable)
                  00008788    00000010     icall_cc2650.obj (.text:ICallPlatform_pwrGetXOSCStartupTime)
                  00008798    00000010     icall.obj (.text:ICall_primGetTickPeriod$6)
                  000087a8    00000010     icall.obj (.text:ICall_taskEntry$6)
                  000087b8    00000010     driverlib.lib : rfc.obj (.text:NOROM_RFCRfTrimSet)
                  000087c8    00000010     util.obj (.text:Util_isActive)
                  000087d8    00000010     rom_sysbios.aem3 : rom_sysbios.obj (.text:ti_sysbios_family_arm_m3_Hwi_post__E)
                  000087e8    00000010     app_ble_uartlog_pem3.oem3 (.text:xdc_runtime_LoggerCallback_Object__get__S)
                  000087f8    0000000e     icall_cc2650.obj (.text:ICallPlatform_pwrGetTransitionState)
                  00008806    0000000e     icall_cc2650.obj (.text:ICallPlatform_pwrIsStableXOSCHF)
                  00008814    0000000e     icall.obj (.text:ICall_primDisableMInt$6)
                  00008822    0000000e     icall.obj (.text:ICall_primEnableMInt$6)
                  00008830    0000000e     icall.obj (.text:ICall_primFreeMsg$6)
                  0000883e    0000000e     icall.obj (.text:ICall_primGetTicks$6)
                  0000884c    0000000e     driverlib.lib : setup.obj (.text:NOROM_SetupSignExtendVddrTrimValue)
                  0000885a    0000000e                   : vims.obj (.text:NOROM_VIMSModeGet)
                  00008868    0000000e     rtsv7M3_T_le_eabi.lib : copy_decompress_none.c.obj (.text:decompress:none:__TI_decompress_none)
                  00008876    0000000e     icall_api.obj (.text:matchGSARegisterServiceCS$9)
                  00008884    0000000e     icall_api.obj (.text:matchGapLinkEstCS$9)
                  00008892    0000000e     icall_api.obj (.text:matchGapPasscodeCS$9)
                  000088a0    0000000e     icall_api.obj (.text:matchGattSendRspCS$9)
                  000088ae    0000000e     icall_api.obj (.text:matchLinkDBNumConnsCS$9)
                  000088bc    0000000e     icall_api.obj (.text:setDispatchCmdEvtHdr$9)
                  000088ca    0000000e     rom_sysbios.aem3 : rom_sysbios.obj (.text:ti_sysbios_family_arm_cc26xx_TimestampProvider_get32__E)
                  000088d8    0000000c     rf_singleMode_cc26xxware.aem3 : RFCC26XX_singleMode.oem3 (.text:FsmNextState)
                  000088e4    0000000c     icall.obj (.text:ICall_clockFunc$6)
                  000088f0    0000000c     icall.obj (.text:ICall_primDisableInt$6)
                  000088fc    0000000c     icall.obj (.text:ICall_primEnableInt$6)
                  00008908    0000000c     icall.obj (.text:ICall_primFree$6)
                  00008914    0000000c     icall.obj (.text:ICall_primSignal$6)
                  00008920    0000000c     driverlib.lib : cpu.obj (.text:NOROM_CPUcpsid)
                  0000892c    0000000c                   : cpu.obj (.text:NOROM_CPUcpsie)
                  00008938    0000000c     drivers_cc26xxware.aem3 : PowerCC26XX.oem3 (.text:Power_getConstraintMask)
                  00008944    0000000c                             : PowerCC26XX.oem3 (.text:Power_getDependencyCount)
                  00008950    0000000c                             : PowerCC26XX.oem3 (.text:Power_getTransitionState)
                  0000895c    0000000c     rtsv7M3_T_le_eabi.lib : _lock.c.obj (.text:_register_lock)
                  00008968    0000000c                           : _lock.c.obj (.text:_register_unlock)
                  00008974    0000000c                           : copy_zero_init.c.obj (.text:decompress:ZI:__TI_zero_init)
                  00008980    0000000c     icall_api.obj (.text:matchProfileSetParamCS$9)
                  0000898c    0000000c     scif_framework.obj (.text:osalUnlockCtrlTaskNbl$17)
                  00008998    0000000c     rtsv7M3_T_le_eabi.lib : fputc.c.obj (.text:putchar)
                  000089a4    0000000c     rom_sysbios.aem3 : rom_sysbios.obj (.text:ti_sysbios_BIOS_getThreadType__E)
                  000089b0    0000000c                      : rom_sysbios_config.obj (.text:ti_sysbios_hal_Hwi_Params__init__S)
                  000089bc    0000000c                      : rom_sysbios.obj (.text:ti_sysbios_knl_Swi_getTrigger__E)
                  000089c8    0000000c     app_ble_uartlog_pem3.oem3 (.text:xdc_runtime_Startup_reset__I)
                  000089d4    0000000c     rom_sysbios.aem3 : rom_sysbios.obj (.text:xdc_runtime_Startup_rtsDone__E)
                  000089e0    0000000c                      : rom_sysbios.obj (.text:xdc_runtime_SysStd_exit__E)
                  000089ec    0000000a     icall_cc2650.obj (.text:ICallPlatform_pwrSwitchXOSCHF)
                  000089f6    0000000a     icall.obj (.text:ICall_primE2S$6)
                  00008a00    0000000a     drivers_cc26xxware.aem3 : List.oem3 (.text:List_empty)
                  00008a0a    0000000a     scTask.obj (.text:SC_ctrlReadyHwiCb$1)
                  00008a14    0000000a     scTask.obj (.text:SC_taskAlertHwiCb$1)
                  00008a1e    0000000a     rom_sysbios.aem3 : rom_sysbios.obj (.text:xdc_runtime_LoggerCallback_disable__E)
                  00008a28    0000000a                      : rom_sysbios.obj (.text:xdc_runtime_LoggerCallback_enable__E)
                  00008a32    00000008     rf_singleMode_cc26xxware.aem3 : RFCC26XX_singleMode.oem3 (.text:RF_flushCmd)
                  00008a3a    00000008     icall_api.obj (.text:matchHciExtConnEventNoticeCS$9)
                  00008a42    00000006     rf_singleMode_cc26xxware.aem3 : RFCC26XX_singleMode.oem3 (.text:clkInactivityFxn)
                  00008a48    00000006     icall_api.obj (.text:matchBondMgrSetParamCS$9)
                  00008a4e    00000006     icall_api.obj (.text:matchGGSSetParamCS$9)
                  00008a54    00000006     icall_api.obj (.text:matchGapConnParamUpdateReplyCS$9)
                  00008a5a    00000006     icall_api.obj (.text:matchGapDeviceInitCS$9)
                  00008a60    00000006     icall_api.obj (.text:matchGapEndDiscoverableCS$9)
                  00008a66    00000006     icall_api.obj (.text:matchGapGetParamCS$9)
                  00008a6c    00000006     icall_api.obj (.text:matchGapMakeDiscoverableCS$9)
                  00008a72    00000006     icall_api.obj (.text:matchGapSetParamCS$9)
                  00008a78    00000006     icall_api.obj (.text:matchGapTerminateAuthCS$9)
                  00008a7e    00000006     icall_api.obj (.text:matchGapTerminateLinkReqCS$9)
                  00008a84    00000006     icall_api.obj (.text:matchGapUpdateAdvDataCS$9)
                  00008a8a    00000006     icall_api.obj (.text:matchGapUpdateLinkParamReqCS$9)
                  00008a90    00000006     icall_api.obj (.text:matchUtilNvReadCS$9)
                  00008a96    00000006     icall_api.obj (.text:matchUtilNvWriteCS$9)
                  00008a9c    00000006     scif_framework.obj (.text:osalClearCtrlReadyInt$17)
                  00008aa2    00000006     scif_framework.obj (.text:osalClearTaskAlertInt$17)
                  00008aa8    00000006     scif_framework.obj (.text:osalDisableCtrlReadyInt$17)
                  00008aae    00000006     scif_framework.obj (.text:osalEnableCtrlReadyInt$17)
                  00008ab4    00000006     scif_framework.obj (.text:scifOsalDisableTaskAlertInt)
                  00008aba    00000006     scif_framework.obj (.text:scifOsalEnableTaskAlertInt)
                  00008ac0    00000006     rom_sysbios.aem3 : rom_sysbios.obj (.text:ti_sysbios_family_arm_m3_Hwi_setFunc__E)
                  00008ac6    00000004     tirtosport.aem3 : HwiP_tirtos.oem3 (.text:HwiP_disable)
                  00008aca    00000004     drivers_cc26xxware.aem3 : List.oem3 (.text:List_next)
                  00008ace    00000004     rf_singleMode_cc26xxware.aem3 : RFCC26XX_singleMode.oem3 (.text:Q_peek)
                  00008ad2    00000004     util.obj (.text:Util_stopClock)
                  00008ad6    00000004     rtsv7M3_T_le_eabi.lib : exit.c.obj (.text:abort:abort)
                  00008ada    00000004     drivers_cc26xxware.aem3 : PowerCC26XX.oem3 (.text:nopResourceHandler)
                  00008ade    00000004     rom_sysbios.aem3 : rom_sysbios.obj (.text:ti_sysbios_family_arm_cc26xx_Timer_getCount64__E)
                  00008ae2    00000004                      : rom_sysbios.obj (.text:ti_sysbios_knl_Clock_isActive__E)
                  00008ae6    00000004                      : rom_sysbios.obj (.text:xdc_runtime_LoggerCallback_defaultCreate)
                  00008aea    00000002                      : rom_sysbios.obj (.text:ti_sysbios_knl_Clock_triggerFunc__I)
                  00008aec    00000002     app_ble_uartlog_pem3.oem3 (.text:ti_sysbios_rom_cortexm_cc26xx_CC26xx_badRomRevision__E)
                  00008aee    00000002     uart_logs.obj (.text:uartLog_flush)
                  00008af0    00000002     project_zero.obj (.text:user_gapBondMgr_pairStateCB$0)
                  00008af2    00000002     rom_sysbios.aem3 : rom_sysbios.obj (.text:xdc_runtime_SysCallback_defaultAbort)
                  00008af4    00000002                      : rom_sysbios.obj (.text:xdc_runtime_SysCallback_defaultExit)
                  00008af6    00000002     --HOLE-- [fill = 0]
                  00008af8    00000008     (.tramp.ti_sysbios_family_arm_m3_Hwi_disableInterrupt__E.1)
                  00008b00    00000008     (.tramp.xdc_runtime_Core_assignParams__I.1)
                  00008b08    00000008     (.tramp.ti_sysbios_hal_Hwi_enableInterrupt__E.1)
                  00008b10    00000008     (.tramp.ti_sysbios_hal_Hwi_disableInterrupt__E.1)
                  00008b18    00000008     (.tramp.ti_sysbios_knl_Task_enable__E.1)
                  00008b20    00000008     (.tramp.ti_sysbios_family_arm_m3_Hwi_enableFxn__E.1)
                  00008b28    00000008     (.tramp.xdc_runtime_Startup_startMods__I.1)
                  00008b30    00000008     (.tramp.ti_sysbios_knl_Clock_logTick__E.1)
                  00008b38    00000008     (.tramp.ti_sysbios_knl_Swi_post__E.1)
                  00008b40    00000008     (.tramp.ti_sysbios_BIOS_RtsGateProxy_leave__E.1)
                  00008b48    00000008     (.tramp.xdc_runtime_Memory_free__E.1)
                  00008b50    00000008     (.tramp.ti_sysbios_BIOS_RtsGateProxy_enter__E.1)
                  00008b58    00000008     (.tramp.xdc_runtime_Memory_alloc__E.1)
                  00008b60    00000008     (.tramp.xdc_runtime_Error_init__E.1)
                  00008b68    00000008     (.tramp.xdc_runtime_Core_createObject__I.1)
                  00008b70    00000008     (.tramp.ti_sysbios_knl_Task_startup__E.1)
                  00008b78    00000008     (.tramp.ti_sysbios_knl_Swi_startup__E.1)
                  00008b80    00000008     (.tramp.ti_sysbios_hal_Hwi_startup__E.1)
                  00008b88    00000008     (.tramp.ti_sysbios_family_arm_cc26xx_Timer_startup__E.1)
                  00008b90    00000008     (.tramp.xdc_runtime_System_atexit__E.1)
                  00008b98    00000008     (.tramp.ti_sysbios_BIOS_setThreadType__E.1)
                  00008ba0    00000008     (.tramp.ti_sysbios_hal_Hwi_create.1)
                  00008ba8    00000008     (.tramp.ti_sysbios_knl_Task_construct.1)
                  00008bb0    00000008     (.tramp.xdc_runtime_System_exit__E.1)
                  00008bb8    00000008     (.tramp.ti_sysbios_knl_Semaphore_create.1)
                  00008bc0    00000008     (.tramp.ti_sysbios_knl_Queue_enqueue__E.1)
                  00008bc8    00000008     (.tramp.ti_sysbios_knl_Task_create.1)
                  00008bd0    00000008     (.tramp.ti_sysbios_knl_Task_Params__init__S.1)
                  00008bd8    00000008     (.tramp.ti_sysbios_knl_Clock_create.1)
                  00008be0    00000008     (.tramp.ti_sysbios_knl_Clock_scheduleNextTick__E.1)
                  00008be8    00000008     (.tramp.ti_sysbios_knl_Clock_walkQueueDynamic__E.1)
                  00008bf0    00000008     (.tramp.ti_sysbios_knl_Clock_TimerProxy_getCurrentTick__E.1)
                  00008bf8    00000008     (.tramp.ti_sysbios_BIOS_start__E.1)
                  00008c00    00000008     (.tramp.ti_sysbios_family_arm_m3_Hwi_enableInterrupt__E.1)
                  00008c08    00000008     (.tramp.ti_sysbios_knl_Semaphore_post__E.1)
                  00008c10    00000008     (.tramp.ti_sysbios_knl_Semaphore_pend__E.1)
                  00008c18    00000008     (.tramp.ti_sysbios_knl_Clock_getTicks__E.1)
                  00008c20    00000008     (.tramp.ti_sysbios_knl_Task_self__E.1)
                  00008c28    00000008     (.tramp.xdc_runtime_System_abortSpin__E.1)
                  00008c30    00000008     (.tramp.ti_sysbios_knl_Swi_construct.1)
                  00008c38    00000008     (.tramp.ti_sysbios_knl_Swi_Params__init__S.1)
                  00008c40    00000008     (.tramp.ti_sysbios_family_arm_m3_Hwi_construct.1)
                  00008c48    00000008     (.tramp.ti_sysbios_family_arm_m3_Hwi_Params__init__S.1)
                  00008c50    00000008     (.tramp.ti_sysbios_knl_Semaphore_construct.1)
                  00008c58    00000008     (.tramp.ti_sysbios_knl_Semaphore_Params__init__S.1)
                  00008c60    00000008     (.tramp.ti_sysbios_knl_Task_restore__E.1)
                  00008c68    00000008     (.tramp.ti_sysbios_knl_Swi_restore__E.1)
                  00008c70    00000008     (.tramp.ti_sysbios_knl_Swi_disable__E.1)
                  00008c78    00000008     (.tramp.ti_sysbios_knl_Task_disable__E.1)
                  00008c80    00000008     (.tramp.ti_sysbios_knl_Clock_construct.1)
                  00008c88    00000008     (.tramp.ti_sysbios_knl_Clock_start__E.1)
                  00008c90    00000008     (.tramp.ti_sysbios_knl_Clock_setTimeout__E.1)
                  00008c98    00000008     (.tramp.ti_sysbios_knl_Clock_Params__init__S.1)
                  00008ca0    00000008     (.tramp.ti_sysbios_knl_Task_exit__E.1)
                  00008ca8    00000008     (.tramp.ti_sysbios_knl_Queue_construct.1)
                  00008cb0    00000008     (.tramp.ti_sysbios_family_arm_m3_Hwi_restoreFxn__E.1)
                  00008cb8    00000008     (.tramp.ti_sysbios_family_arm_m3_Hwi_disableFxn__E.1)
                  00008cc0    00000008     (.tramp.ti_sysbios_knl_Task_sleep__E.1)
                  00008cc8    00000008     (.tramp.ti_sysbios_knl_Queue_dequeue__E.1)
                  00008cd0    00000008     (.tramp.ti_sysbios_knl_Queue_empty__E.1)

.const     0    00008cd8    00001ef8     
                  00008cd8    000017c0     app_ble_uartlog_pem3.oem3 (.const:xdc_runtime_Text_charTab__A)
                  0000a498    000002a4     scif.obj (.const:pAuxRamImage$16)
                  0000a73c    000000cc     icall.obj (.const:$O5$$)
                  0000a808    0000004c     adc_service.obj (.const:$O9$$)
                  0000a854    0000004c     drivers_cc26xxware.aem3 : PowerCC26XX.oem3 (.const:resourceDB)
                  0000a8a0    0000004c     ble_user_config.obj (.const:rfDriverTable)
                  0000a8ec    00000048     app_ble_uartlog_pem3.oem3 (.const:.string)
                  0000a934    00000034     app_ble_uartlog_pem3.oem3 (.const:xdc_runtime_LoggerCallback_Module__FXNS__C)
                  0000a968    00000030     scif.obj (.const:scifDriverSetup)
                  0000a998    0000002c     gatt_uuid.obj (.const:$O11$$)
                  0000a9c4    00000028     CC2650_LAUNCHXL.obj (.const:BoardGpioInitTable)
                  0000a9ec    00000028     app_ble_uartlog_pem3.oem3 (.const:xdc_runtime_Startup_sfxnTab__A)
                  0000aa14    00000027     ble_user_config.obj (.const:txPowerTable)
                  0000aa3b    00000001     --HOLE-- [fill = 0]
                  0000aa3c    00000020     app_ble_uartlog_pem3.oem3 (.const:xdc_runtime_LoggerCallback_Object__DESC__C)
                  0000aa5c    0000001c     interval_service.obj (.const:$O13$$)
                  0000aa78    0000001c     app_ble_uartlog_pem3.oem3 (.const:xdc_runtime_LoggerCallback_Object__PARAMS__C)
                  0000aa94    00000014     rf_singleMode_cc26xxware.aem3 : RFCC26XX_singleMode.oem3 (.const)
                  0000aaa8    00000014     app_ble_uartlog_pem3.oem3 (.const:xdc_runtime_Startup_sfxnRts__A)
                  0000aabc    00000011     project_zero.obj (.const:.string:$P$T0$2$0)
                  0000aacd    00000011     util.obj (.const:.string:$P$T0$2$2)
                  0000aade    00000010     interval_service.obj (.const:.string:IntervalServiceUUID)
                  0000aaee    00000010     scif.obj (.const:.string:pAuxIoIndexToMcuIocfgOffsetLut$16)
                  0000aafe    00000002     adc_service.obj (.const:.string:adc_serviceUUID)
                  0000ab00    00000010     CC2650_LAUNCHXL.obj (.const:PowerCC26XX_config)
                  0000ab10    00000010     CC2650_LAUNCHXL.obj (.const:TRNGCC26XX_config)
                  0000ab20    00000010     scif.obj (.const:pScifTaskDataStructInfoLut$16)
                  0000ab30    0000000c     devinfoservice.obj (.const:devInfoCBs)
                  0000ab3c    0000000c     ble_user_config.obj (.const:trngDriverTable)
                  0000ab48    0000000c     app_ble_uartlog_pem3.oem3 (.const:xdc_runtime_Startup_firstFxns__A)
                  0000ab54    00000008     interval_service.obj (.const:IntervalServiceDecl$14)
                  0000ab5c    00000008     CC2650_LAUNCHXL.obj (.const:PINCC26XX_hwAttrs)
                  0000ab64    00000008     adc_service.obj (.const:adc_serviceDecl$10)
                  0000ab6c    00000008     devinfoservice.obj (.const:devInfoService$11)
                  0000ab74    00000008     app_ble_uartlog_pem3.oem3 (.const:ti_sysbios_knl_Idle_funcList__A)
                  0000ab7c    00000006     ble_user_config.obj (.const:txPwrTbl)
                  0000ab82    00000004     CC2650_LAUNCHXL.obj (.const:RFCC26XX_hwAttrs)
                  0000ab86    00000002     devinfoservice.obj (.const:.string:devInfo11073CertUUID)
                  0000ab88    00000004     CC2650_LAUNCHXL.obj (.const:TRNGCC26XXHWAttrs)
                  0000ab8c    00000004     icall_cc2650.obj (.const:events$1$7)
                  0000ab90    00000004     app_ble_uartlog_pem3.oem3 (.const:ti_sysbios_knl_Clock_tickPeriod__C)
                  0000ab94    00000004     app_ble_uartlog_pem3.oem3 (.const:ti_sysbios_knl_Clock_triggerClock__C)
                  0000ab98    00000004     app_ble_uartlog_pem3.oem3 (.const:xdc_runtime_ILogger_Interface__BASE__C)
                  0000ab9c    00000004     app_ble_uartlog_pem3.oem3 (.const:xdc_runtime_Log_L_error__C)
                  0000aba0    00000004     app_ble_uartlog_pem3.oem3 (.const:xdc_runtime_Log_L_info__C)
                  0000aba4    00000004     app_ble_uartlog_pem3.oem3 (.const:xdc_runtime_LoggerCallback_Object__count__C)
                  0000aba8    00000004     app_ble_uartlog_pem3.oem3 (.const:xdc_runtime_LoggerCallback_createInstFxn__C)
                  0000abac    00000004     app_ble_uartlog_pem3.oem3 (.const:xdc_runtime_LoggerCallback_outputFxn__C)
                  0000abb0    00000004     app_ble_uartlog_pem3.oem3 (.const:xdc_runtime_Main_Module__loggerFxn4__C)
                  0000abb4    00000004     app_ble_uartlog_pem3.oem3 (.const:xdc_runtime_Main_Module__loggerFxn8__C)
                  0000abb8    00000004     app_ble_uartlog_pem3.oem3 (.const:xdc_runtime_Main_Module__loggerObj__C)
                  0000abbc    00000002     devinfoservice.obj (.const:.string:devInfoFirmwareRevUUID)
                  0000abbe    00000002     devinfoservice.obj (.const:.string:devInfoHardwareRevUUID)
                  0000abc0    00000002     devinfoservice.obj (.const:.string:devInfoMfrNameUUID)
                  0000abc2    00000002     devinfoservice.obj (.const:.string:devInfoModelNumberUUID)
                  0000abc4    00000002     devinfoservice.obj (.const:.string:devInfoPnpIdUUID)
                  0000abc6    00000002     devinfoservice.obj (.const:.string:devInfoSerialNumberUUID)
                  0000abc8    00000002     devinfoservice.obj (.const:.string:devInfoServUUID)
                  0000abca    00000002     devinfoservice.obj (.const:.string:devInfoSoftwareRevUUID)
                  0000abcc    00000002     devinfoservice.obj (.const:.string:devInfoSystemIdUUID)
                  0000abce    00000002     app_ble_uartlog_pem3.oem3 (.const:xdc_runtime_Main_Module__loggerDefined__C)

.data:ti_sysbios_knl_Task_Module__state__V 
*          0    20000100    00000044     UNINITIALIZED
                  20000100    00000044     app_ble_uartlog_pem3.oem3 (.data:ti_sysbios_knl_Task_Module__state__V)

.data:ti_sysbios_family_arm_m3_Hwi_Module__state__V 
*          0    20000144    00000034     UNINITIALIZED
                  20000144    00000034     app_ble_uartlog_pem3.oem3 (.data:ti_sysbios_family_arm_m3_Hwi_Module__state__V)

.data:ti_sysbios_knl_Clock_Module__state__V 
*          0    20000178    0000002c     UNINITIALIZED
                  20000178    0000002c     app_ble_uartlog_pem3.oem3 (.data:ti_sysbios_knl_Clock_Module__state__V)

.data:ti_sysbios_BIOS_Module__state__V 
*          0    200001a4    00000024     UNINITIALIZED
                  200001a4    00000024     app_ble_uartlog_pem3.oem3 (.data:ti_sysbios_BIOS_Module__state__V)

.data:ti_sysbios_knl_Swi_Module__state__V 
*          0    200001c8    0000001c     UNINITIALIZED
                  200001c8    0000001c     app_ble_uartlog_pem3.oem3 (.data:ti_sysbios_knl_Swi_Module__state__V)

.data:ti_sysbios_family_arm_cc26xx_Timer_Module__state__V 
*          0    200001e4    00000008     UNINITIALIZED
                  200001e4    00000008     app_ble_uartlog_pem3.oem3 (.data:ti_sysbios_family_arm_cc26xx_Timer_Module__state__V)

.data:ti_sysbios_family_arm_cc26xx_TimestampProvider_Module__state__V 
*          0    200001ec    00000004     UNINITIALIZED
                  200001ec    00000004     app_ble_uartlog_pem3.oem3 (.data:ti_sysbios_family_arm_cc26xx_TimestampProvider_Module__state__V)

.data:xdc_runtime_Startup_Module__state__V 
*          0    200001f0    00000008     UNINITIALIZED
                  200001f0    00000008     app_ble_uartlog_pem3.oem3 (.data:xdc_runtime_Startup_Module__state__V)

.data:xdc_runtime_System_Module__state__V 
*          0    200001f8    00000008     UNINITIALIZED
                  200001f8    00000008     app_ble_uartlog_pem3.oem3 (.data:xdc_runtime_System_Module__state__V)

.data:xdc_runtime_Memory_Module__state__V 
*          0    20000200    00000004     UNINITIALIZED
                  20000200    00000004     app_ble_uartlog_pem3.oem3 (.data:xdc_runtime_Memory_Module__state__V)

.bootVecs 
*          0    00000000    00000008     DSECT
                  00000000    00000008     boot.aem3 : boot.oem3 (.bootVecs)

.resetVecs 
*          0    00000000    0000003c     
                  00000000    0000003c     app_ble_uartlog_pem3.oem3 (.resetVecs)

.vecs      0    20000000    000000c8     NOLOAD SECTION
                  20000000    000000c8     app_ble_uartlog_pem3.oem3 (.vecs)

xdc.meta   0    00000000    00000105     COPY SECTION
                  00000000    00000105     app_ble_uartlog_pem3.oem3 (xdc.meta)

.cinit     0    0000abd8    000004c8     
                  0000abd8    00000391     (.cinit..data.load) [load image, compression = lzss]
                  0000af69    00000028     (.cinit..data:ti_sysbios_family_arm_m3_Hwi_Module__state__V.load) [load image, compression = lzss]
                  0000af91    00000021     (.cinit..data:ti_sysbios_knl_Task_Module__state__V.load) [load image, compression = lzss]
                  0000afb2    0000001e     (.cinit..data:ti_sysbios_BIOS_Module__state__V.load) [load image, compression = lzss]
                  0000afd0    0000001e     (.cinit..data:ti_sysbios_knl_Clock_Module__state__V.load) [load image, compression = lzss]
                  0000afee    00000010     (.cinit..data:ti_sysbios_knl_Swi_Module__state__V.load) [load image, compression = lzss]
                  0000affe    00000002     --HOLE-- [fill = 0]
                  0000b000    0000000c     (__TI_handler_table)
                  0000b00c    0000000b     (.cinit..data:ti_sysbios_family_arm_cc26xx_Timer_Module__state__V.load) [load image, compression = lzss]
                  0000b017    00000001     --HOLE-- [fill = 0]
                  0000b018    00000008     (.cinit..bss.load) [load image, compression = zero_init]
                  0000b020    00000008     (.cinit..data:xdc_runtime_Memory_Module__state__V.load) [load image, compression = lzss]
                  0000b028    00000007     (.cinit..data:ti_sysbios_family_arm_cc26xx_TimestampProvider_Module__state__V.load) [load image, compression = lzss]
                  0000b02f    00000007     (.cinit..data:xdc_runtime_Startup_Module__state__V.load) [load image, compression = lzss]
                  0000b036    00000007     (.cinit..data:xdc_runtime_System_Module__state__V.load) [load image, compression = lzss]
                  0000b03d    00000003     --HOLE-- [fill = 0]
                  0000b040    00000060     (__TI_cinit_table)

.init_array 
*          0    00000000    00000000     UNINITIALIZED

.ccfg      0    0001ffa8    00000058     
                  0001ffa8    00000058     ccfg_app_ble.obj (.ccfg:retain)

.data      0    20000208    00001852     UNINITIALIZED
                  20000208    000005b8     uart_logs.obj (.data:$O16$$)
                  200007c0    00000414     project_zero.obj (.data:$O1$$)
                  20000bd4    0000036c     peripheral.obj (.data:$O14$$)
                  20000f40    000001d4     devinfoservice.obj (.data:$O10$$)
                  20001114    00000194     rtsv7M3_T_le_eabi.lib : defs.c.obj (.data:$O18$$)
                  200012a8    00000110     drivers_cc26xxware.aem3 : PowerCC26XX.oem3 (.data:PowerCC26XX_module)
                  200013b8    000000f4     adc_service.obj (.data:$O8$$)
                  200014ac    000000c8     rtsv7M3_T_le_eabi.lib : write.c.obj (.data:$O19$$)
                  20001574    000000a0     scTask.obj (.data:$O2$$)
                  20001614    00000094     icall.obj (.data:$O4$$)
                  200016a8    0000008c     scif_framework.obj (.data:$O15$$)
                  20001734    00000050     ble_user_config.obj (.data:rfRegTbl)
                  20001784    0000004c     app_ble_uartlog_pem3.oem3 (.data:ti_sysbios_knl_Task_Object__table__V)
                  200017d0    00000048     app_ble_uartlog_pem3.oem3 (.data:ti_sysbios_family_arm_cc26xx_Timer_Object__table__V)
                  20001818    00000038     interval_service.obj (.data:$O12$$)
                  20001850    00000038     app_ble_uartlog_pem3.oem3 (.data:ti_sysbios_gates_GateMutex_Object__table__V)
                  20001888    00000030     app_ble_uartlog_pem3.oem3 (.data:ti_sysbios_knl_Swi_Module_State_0_readyQ__A)
                  200018b8    00000030     app_ble_uartlog_pem3.oem3 (.data:ti_sysbios_knl_Swi_Object__table__V)
                  200018e8    00000030     app_ble_uartlog_pem3.oem3 (.data:ti_sysbios_knl_Task_Module_State_0_readyQ__A)
                  20001918    00000030     main.obj (.data:user0Cfg)
                  20001948    00000020     app_ble_uartlog_pem3.oem3 (.data:ti_sysbios_knl_Clock_Object__table__V)
                  20001968    00000018     app_ble_uartlog_pem3.oem3 (.data:ti_sysbios_family_arm_m3_Hwi_Object__table__V)
                  20001980    00000018     app_ble_uartlog_pem3.oem3 (.data:ti_sysbios_heaps_HeapMem_Object__table__V)
                  20001998    00000010     app_ble_uartlog_pem3.oem3 (.data:xdc_runtime_LoggerCallback_Object__table__V)
                  200019a8    0000000c     rtsv7M3_T_le_eabi.lib : exit.c.obj (.data:$O1$$)
                  200019b4    0000000c     icall_api.obj (.data:$O7$$)
                  200019c0    00000009     devinfoservice.obj (.data)
                  200019c9    00000003     scif_framework.obj (.data)
                  200019cc    00000008     rtsv7M3_T_le_eabi.lib : _lock.c.obj (.data:$O17$$)
                  200019d4    00000008     icall_cc2650.obj (.data:$O6$$)
                  200019dc    00000008     app_ble_uartlog_pem3.oem3 (.data:ti_sysbios_family_arm_m3_Hwi_Module__root__V)
                  200019e4    00000008     app_ble_uartlog_pem3.oem3 (.data:ti_sysbios_gates_GateHwi_Module__root__V)
                  200019ec    00000008     app_ble_uartlog_pem3.oem3 (.data:ti_sysbios_gates_GateMutex_Module__root__V)
                  200019f4    00000008     app_ble_uartlog_pem3.oem3 (.data:ti_sysbios_hal_Hwi_Module__root__V)
                  200019fc    00000008     app_ble_uartlog_pem3.oem3 (.data:ti_sysbios_heaps_HeapMem_Module__root__V)
                  20001a04    00000008     app_ble_uartlog_pem3.oem3 (.data:ti_sysbios_knl_Clock_Module__root__V)
                  20001a0c    00000008     app_ble_uartlog_pem3.oem3 (.data:ti_sysbios_knl_Mailbox_Module__root__V)
                  20001a14    00000008     app_ble_uartlog_pem3.oem3 (.data:ti_sysbios_knl_Queue_Module__root__V)
                  20001a1c    00000008     app_ble_uartlog_pem3.oem3 (.data:ti_sysbios_knl_Semaphore_Module__root__V)
                  20001a24    00000008     app_ble_uartlog_pem3.oem3 (.data:ti_sysbios_knl_Swi_Module__root__V)
                  20001a2c    00000008     app_ble_uartlog_pem3.oem3 (.data:ti_sysbios_knl_Task_Module__root__V)
                  20001a34    00000008     app_ble_uartlog_pem3.oem3 (.data:xdc_runtime_LoggerCallback_Module__root__V)
                  20001a3c    00000004     adc_service.obj (.data)
                  20001a40    00000004     ble_user_config.obj (.data)
                  20001a44    00000004     rtsv7M3_T_le_eabi.lib : stkdepth_vars.c.obj (.data)
                  20001a48    00000004     app_ble_uartlog_pem3.oem3 (.data:ti_sysbios_family_arm_m3_Hwi_Module_State_0_excContext__A)
                  20001a4c    00000004     app_ble_uartlog_pem3.oem3 (.data:ti_sysbios_family_arm_m3_Hwi_Module_State_0_excStack__A)
                  20001a50    00000004     app_ble_uartlog_pem3.oem3 (.data:ti_sysbios_knl_Task_Module_State_0_idleTask__A)
                  20001a54    00000002     rf_singleMode_cc26xxware.aem3 : RFCC26XX_singleMode.oem3 (.data)
                  20001a56    00000002     app_ble_uartlog_pem3.oem3 (.data:ti_sysbios_family_arm_m3_Hwi_Module_State_0_excActive__A)
                  20001a58    00000001     TRNGCC26XX.obj (.data)
                  20001a59    00000001     interval_service.obj (.data)

.bss       0    20001a60    00000de3     UNINITIALIZED
                  20001a60    00000680     (.common:ti_sysbios_heaps_HeapMem_Instance_State_0_buf__A)
                  200020e0    00000200     app_ble_uartlog_pem3.oem3 (.bss:taskStackSection)
                  200022e0    00000120     rtsv7M3_T_le_eabi.lib : trgmsg.c.obj (.bss:_CIOBUF_)
                  20002400    00000100     rf_singleMode_cc26xxware.aem3 : RFCC26XX_singleMode.oem3 (.bss:aCmdPool)
                  20002500    000000c8     (.common:ti_sysbios_family_arm_m3_Hwi_dispatchTable)
                  200025c8    0000007c     drivers_cc26xxware.aem3 : PINCC26XX.oem3 (.bss:PIN_HandleTable)
                  20002644    00000034                             : PINCC26XX.oem3 (.bss:PinSwi)
                  20002678    00000034     rf_singleMode_cc26xxware.aem3 : RFCC26XX_singleMode.oem3 (.bss:swiFsm)
                  200026ac    00000034                                   : RFCC26XX_singleMode.oem3 (.bss:swiHw)
                  200026e0    00000024                                   : RFCC26XX_singleMode.oem3 (.bss:clkPowerUp)
                  20002704    00000020     (.common:PinGpioConfigTable)
                  20002724    00000020     (.common:cmdDirImm)
                  20002744    0000001c     (.common:PinHwi)
                  20002760    0000001c     (.common:PinSem)
                  2000277c    0000001c     (.common:hwiCpe0)
                  20002798    0000001c     (.common:hwiHw)
                  200027b4    00000014     driverlib.lib : osc.obj (.bss:oscHfGlobals$29)
                  200027c8    00000014     (.common:cmdQ)
                  200027dc    00000014     (.common:opRatSync)
                  200027f0    00000010     util.obj (.bss:str$1$2)
                  20002800    00000008     driverlib.lib : sys_ctrl.obj (.bss:powerQualGlobals$32)
                  20002808    00000008     (.common:parmbuf)
                  20002810    00000004     (.common:PIN_NumPins)
                  20002814    00000004     (.common:activeTimeInUs)
                  20002818    00000004     (.common:dispatchInUs)
                  2000281c    00000004     (.common:nRtc1)
                  20002820    00000004     (.common:nRtc2)
                  20002824    00000004     (.common:nRtc3)
                  20002828    00000004     (.common:pCurrClient)
                  2000282c    00000004     (.common:pFsmState)
                  20002830    00000004     (.common:pPinGpio)
                  20002834    00000004     (.common:trngCC26XXObjects)
                  20002838    00000001     (.common:bInitAvailRatCh)
                  20002839    00000001     (.common:bPowerDownActive)
                  2000283a    00000001     (.common:bPowerUpActive)
                  2000283b    00000001     (.common:bRadioActive)
                  2000283c    00000001     (.common:bRestart)
                  2000283d    00000001     (.common:bStart)
                  2000283e    00000001     (.common:bYieldPwrDnCalled)
                  2000283f    00000001     (.common:bYieldPwrDnCancel)
                  20002840    00000001     (.common:driverlib_release_0_46593)
                  20002841    00000001     (.common:nActiveClients)
                  20002842    00000001     (.common:nClients)

.vtable    0    20002843    00000000     UNINITIALIZED

.vtable_ram 
*          0    20002843    00000000     UNINITIALIZED

vtable_ram 
*          0    20002843    00000000     UNINITIALIZED

.sysmem    0    20002843    00000000     UNINITIALIZED

.nonretenvar 
*          0    20002843    00000000     UNINITIALIZED

.stack     0    20003f48    00000400     UNINITIALIZED
                  20003f48    00000400     --HOLE--

.args      0    0000abd0    00000008     
                  0000abd0    00000008     --HOLE-- [fill = 0]

MODULE SUMMARY

       Module                                   code    ro data   rw data
       ------                                   ----    -------   -------
    .\Application\
       project_zero.obj                         4020    17        1044   
       scTask.obj                               646     0         160    
       util.obj                                 208     17        16     
    +--+----------------------------------------+-------+---------+---------+
       Total:                                   4874    34        1220   
                                                                         
    .\Board\
       CC2650_LAUNCHXL.obj                      0       88        0      
    +--+----------------------------------------+-------+---------+---------+
       Total:                                   0       88        0      
                                                                         
    .\Drivers\TRNG\
       TRNGCC26XX.obj                           256     0         1      
    +--+----------------------------------------+-------+---------+---------+
       Total:                                   256     0         1      
                                                                         
    .\ICallBLE\
       icall_api.obj                            1870    0         12     
       ble_user_config.obj                      24      133       84     
    +--+----------------------------------------+-------+---------+---------+
       Total:                                   1894    133       96     
                                                                         
    .\ICall\
       icall.obj                                2362    204       148    
       icall_cc2650.obj                         466     4         8      
    +--+----------------------------------------+-------+---------+---------+
       Total:                                   2828    208       156    
                                                                         
    .\PROFILES\
       peripheral.obj                           2592    0         876    
       interval_service.obj                     1744    52        57     
       adc_service.obj                          720     86        248    
       devinfoservice.obj                       180     40        477    
       gattservapp_util.obj                     320     0         0      
       gatt_uuid.obj                            0       44        0      
    +--+----------------------------------------+-------+---------+---------+
       Total:                                   5556    222       1658   
                                                                         
    .\Scif\
       scif.obj                                 64      756       0      
       scif_framework.obj                       560     0         143    
    +--+----------------------------------------+-------+---------+---------+
       Total:                                   624     756       143    
                                                                         
    .\Startup\
       main.obj                                 276     0         48     
       ccfg_app_ble.obj                         0       88        0      
    +--+----------------------------------------+-------+---------+---------+
       Total:                                   276     88        48     
                                                                         
    .\Utils\
       uart_logs.obj                            126     0         1464   
    +--+----------------------------------------+-------+---------+---------+
       Total:                                   126     0         1464   
                                                                         
    C:\Users\bhara\AppData\Local\Temp\
       {8A9ABBAD-0A6B-4C52-8D51-FB293E03947E}   0       0         13     
    +--+----------------------------------------+-------+---------+---------+
       Total:                                   0       0         13     
                                                                         
    C:\Users\bhara\workspace_v8\energy_harvester_ble_app_cc2650_5XD\Debug\configPkg\package\cfg\
       app_ble_uartlog_pem3.oem3                550     7698      3390   
    +--+----------------------------------------+-------+---------+---------+
       Total:                                   550     7698      3390   
                                                                         
    C:/ti/tirtos_cc13xx_cc26xx_2_20_01_08/products/tidrivers_cc13xx_cc26xx_2_20_01_10/packages/ti/drivers/lib/drivers_cc26xxware.aem3
       PowerCC26XX.oem3                         2136    76        272    
       PowerCC26XX_calibrateRCOSC.oem3          1400    0         0      
       PINCC26XX.oem3                           1060    0         272    
       List.oem3                                56      0         0      
    +--+----------------------------------------+-------+---------+---------+
       Total:                                   4652    76        544    
                                                                         
    C:/ti/tirtos_cc13xx_cc26xx_2_20_01_08/products/tidrivers_cc13xx_cc26xx_2_20_01_10/packages/ti/drivers/lib/power_cc26xx_tirtos.aem3
       PowerCC26XX_tirtos.oem3                  188     0         0      
    +--+----------------------------------------+-------+---------+---------+
       Total:                                   188     0         0      
                                                                         
    C:/ti/tirtos_cc13xx_cc26xx_2_20_01_08/products/tidrivers_cc13xx_cc26xx_2_20_01_10/packages/ti/drivers/ports/lib/tirtosport.aem3
       HwiP_tirtos.oem3                         4       0         0      
    +--+----------------------------------------+-------+---------+---------+
       Total:                                   4       0         0      
                                                                         
    C:/ti/tirtos_cc13xx_cc26xx_2_20_01_08/products/tidrivers_cc13xx_cc26xx_2_20_01_10/packages/ti/drivers/rf/lib/rf_singleMode_cc26xxware.aem3
       RFCC26XX_singleMode.oem3                 4920    20        564    
    +--+----------------------------------------+-------+---------+---------+
       Total:                                   4920    20        564    
                                                                         
    C:\Users\bhara\workspace_v8\energy_harvester_ble_app_cc2650_5XD\TOOLS\src\sysbios\rom_sysbios.aem3
       rom_sysbios.obj                          1162    0         0      
       rom_sysbios_config.obj                   12      0         0      
    +--+----------------------------------------+-------+---------+---------+
       Total:                                   1174    0         0      
                                                                         
    C:\ti\ccsv8\tools\compiler\ti-cgt-arm_18.1.3.LTS\lib\rtsv7M3_T_le_eabi.lib
       defs.c.obj                               0       0         404    
       trgmsg.c.obj                             108     0         288    
       fputc.c.obj                              256     0         0      
       write.c.obj                              40      0         200    
       setvbuf.c.obj                            212     0         0      
       fclose.c.obj                             188     0         0      
       fflush.c.obj                             160     0         0      
       memcpy_t2.asm.obj                        156     0         0      
       ull_div_t2.asm.obj                       150     0         0      
       memset_t2.asm.obj                        122     0         0      
       fseek.c.obj                              112     0         0      
       copy_decompress_lzss.c.obj               104     0         0      
       getdevice.c.obj                          104     0         0      
       hostlseek.c.obj                          104     0         0      
       hostrename.c.obj                         100     0         0      
       hostopen.c.obj                           92      0         0      
       hostread.c.obj                           88      0         0      
       hostwrite.c.obj                          84      0         0      
       cpy_tbl.c.obj                            76      0         0      
       hostclose.c.obj                          64      0         0      
       hostunlink.c.obj                         64      0         0      
       strncpy.c.obj                            52      0         0      
       fopen.c.obj                              44      0         0      
       unlink.c.obj                             40      0         0      
       memcmp.c.obj                             36      0         0      
       _lock.c.obj                              26      0         8      
       args_main.c.obj                          24      0         0      
       ll_mul_t2.asm.obj                        24      0         0      
       strcmp.c.obj                             24      0         0      
       strchr.c.obj                             22      0         0      
       strlen.c.obj                             20      0         0      
       strcpy.c.obj                             18      0         0      
       exit.c.obj                               4       0         12     
       copy_decompress_none.c.obj               14      0         0      
       copy_zero_init.c.obj                     12      0         0      
       stkdepth_vars.c.obj                      0       0         4      
       div0.asm.obj                             2       0         0      
    +--+----------------------------------------+-------+---------+---------+
       Total:                                   2746    0         916    
                                                                         
    C:\ti\tirtos_cc13xx_cc26xx_2_20_01_08\products\bios_6_46_01_38\packages\ti\targets\arm\rtsarm\lib\auto_init.aem3
       auto_init.oem3                           160     0         0      
    +--+----------------------------------------+-------+---------+---------+
       Total:                                   160     0         0      
                                                                         
    C:\ti\tirtos_cc13xx_cc26xx_2_20_01_08\products\bios_6_46_01_38\packages\ti\targets\arm\rtsarm\lib\boot.aem3
       boot.oem3                                68      0         0      
    +--+----------------------------------------+-------+---------+---------+
       Total:                                   68      0         0      
                                                                         
    c:/ti/tirtos_cc13xx_cc26xx_2_20_01_08/products/cc26xxware_2_24_02_17393/driverlib/bin/ccs/driverlib.lib
       setup.obj                                1494    0         0      
       sys_ctrl.obj                             732     0         8      
       osc.obj                                  468     0         20     
       ddi.obj                                  188     0         0      
       rfc.obj                                  176     0         0      
       chipinfo.obj                             96      0         0      
       trng.obj                                 48      0         0      
       aon_rtc.obj                              44      0         0      
       adi.obj                                  40      0         0      
       aon_batmon.obj                           40      0         0      
       cpu.obj                                  24      0         0      
       vims.obj                                 14      0         0      
    +--+----------------------------------------+-------+---------+---------+
       Total:                                   3364    0         28     
                                                                         
       Stack:                                   0       0         1024   
       Linker Generated:                        480     1218      0      
    +--+----------------------------------------+-------+---------+---------+
       Grand Total:                             34740   10541     11265  


LINKER GENERATED COPY TABLES

__TI_cinit_table @ 0000b040 records: 12, size/record: 8, table size: 96
	.data: load addr=0000abd8, load size=00000391 bytes, run addr=20000208, run size=00001852 bytes, compression=lzss
	.data:ti_sysbios_family_arm_m3_Hwi_Module__state__V: load addr=0000af69, load size=00000028 bytes, run addr=20000144, run size=00000034 bytes, compression=lzss
	.data:ti_sysbios_knl_Task_Module__state__V: load addr=0000af91, load size=00000021 bytes, run addr=20000100, run size=00000044 bytes, compression=lzss
	.data:ti_sysbios_BIOS_Module__state__V: load addr=0000afb2, load size=0000001e bytes, run addr=200001a4, run size=00000024 bytes, compression=lzss
	.data:ti_sysbios_knl_Clock_Module__state__V: load addr=0000afd0, load size=0000001e bytes, run addr=20000178, run size=0000002c bytes, compression=lzss
	.data:ti_sysbios_knl_Swi_Module__state__V: load addr=0000afee, load size=00000010 bytes, run addr=200001c8, run size=0000001c bytes, compression=lzss
	.data:ti_sysbios_family_arm_cc26xx_Timer_Module__state__V: load addr=0000b00c, load size=0000000b bytes, run addr=200001e4, run size=00000008 bytes, compression=lzss
	.bss: load addr=0000b018, load size=00000008 bytes, run addr=20001a60, run size=00000de3 bytes, compression=zero_init
	.data:xdc_runtime_Memory_Module__state__V: load addr=0000b020, load size=00000008 bytes, run addr=20000200, run size=00000004 bytes, compression=lzss
	.data:ti_sysbios_family_arm_cc26xx_TimestampProvider_Module__state__V: load addr=0000b028, load size=00000007 bytes, run addr=200001ec, run size=00000004 bytes, compression=lzss
	.data:xdc_runtime_Startup_Module__state__V: load addr=0000b02f, load size=00000007 bytes, run addr=200001f0, run size=00000008 bytes, compression=lzss
	.data:xdc_runtime_System_Module__state__V: load addr=0000b036, load size=00000007 bytes, run addr=200001f8, run size=00000008 bytes, compression=lzss


LINKER GENERATED HANDLER TABLE

__TI_handler_table @ 0000b000 records: 3, size/record: 4, table size: 12
	index: 0, handler: __TI_decompress_lzss
	index: 1, handler: __TI_decompress_none
	index: 2, handler: __TI_zero_init


FAR CALL TRAMPOLINES

callee name               trampoline name
   callee addr  tramp addr   call addr  call info
--------------  -----------  ---------  ----------------
ti_sysbios_family_arm_m3_Hwi_disableInterrupt__E  $Tramp$TT$L$PI$$ti_sysbios_family_arm_m3_Hwi_disableInterrupt__E
   1001b299     00008af8     00008aaa   scif_framework.obj (.text:osalDisableCtrlReadyInt$17)
                             00008ab6   scif_framework.obj (.text:scifOsalDisableTaskAlertInt)
xdc_runtime_Core_assignParams__I  $Tramp$TT$L$PI$$xdc_runtime_Core_assignParams__I
   1001c5f1     00008b00     000089b4   rom_sysbios.aem3 : rom_sysbios_config.obj (.text:ti_sysbios_hal_Hwi_Params__init__S)
ti_sysbios_hal_Hwi_enableInterrupt__E  $Tramp$TT$L$PI$$ti_sysbios_hal_Hwi_enableInterrupt__E
   1001c285     00008b08     00008900   icall.obj (.text:ICall_primEnableInt$6)
ti_sysbios_hal_Hwi_disableInterrupt__E  $Tramp$TT$L$PI$$ti_sysbios_hal_Hwi_disableInterrupt__E
   1001c281     00008b10     000088f4   icall.obj (.text:ICall_primDisableInt$6)
ti_sysbios_knl_Task_enable__E  $Tramp$TT$L$PI$$ti_sysbios_knl_Task_enable__E
   1001c243     00008b18     00008828   icall.obj (.text:ICall_primEnableMInt$6)
ti_sysbios_family_arm_m3_Hwi_enableFxn__E  $Tramp$TT$L$PI$$ti_sysbios_family_arm_m3_Hwi_enableFxn__E
   1001c155     00008b20     00008824   icall.obj (.text:ICall_primEnableMInt$6)
xdc_runtime_Startup_startMods__I  $Tramp$TT$L$PI$$xdc_runtime_Startup_startMods__I
   1001c30d     00008b28     00008760   app_ble_uartlog_pem3.oem3 (.text:xdc_runtime_Startup_exec__I)
ti_sysbios_knl_Clock_logTick__E  $Tramp$TT$L$PI$$ti_sysbios_knl_Clock_logTick__E
   1001be67     00008b30     0000870e   app_ble_uartlog_pem3.oem3 (.text:ti_sysbios_knl_Clock_doTick__I)
ti_sysbios_knl_Swi_post__E  $Tramp$TT$L$PI$$ti_sysbios_knl_Swi_post__E
   1001b321     00008b38     0000861c   rom_sysbios.aem3 : rom_sysbios.obj (.text:ti_sysbios_knl_Swi_or__E)
                             00008716   app_ble_uartlog_pem3.oem3 (.text:ti_sysbios_knl_Clock_doTick__I)
ti_sysbios_BIOS_RtsGateProxy_leave__E  $Tramp$TT$L$PI$$ti_sysbios_BIOS_RtsGateProxy_leave__E
   1001c24d     00008b40     000085fe   app_ble_uartlog_pem3.oem3 (.text:ti_sysbios_BIOS_rtsUnlock__I)
xdc_runtime_Memory_free__E  $Tramp$TT$L$PI$$xdc_runtime_Memory_free__E
   1001c801     00008b48     00008542   app_ble_uartlog_pem3.oem3 (.text:free)
ti_sysbios_BIOS_RtsGateProxy_enter__E  $Tramp$TT$L$PI$$ti_sysbios_BIOS_RtsGateProxy_enter__E
   1001c249     00008b50     00008172   app_ble_uartlog_pem3.oem3 (.text:ti_sysbios_BIOS_rtsLock__I)
xdc_runtime_Memory_alloc__E  $Tramp$TT$L$PI$$xdc_runtime_Memory_alloc__E
   1001c489     00008b58     00007ace   app_ble_uartlog_pem3.oem3 (.text:malloc)
xdc_runtime_Error_init__E  $Tramp$TT$L$PI$$xdc_runtime_Error_init__E
   1001c841     00008b60     00007abe   app_ble_uartlog_pem3.oem3 (.text:malloc)
xdc_runtime_Core_createObject__I  $Tramp$TT$L$PI$$xdc_runtime_Core_createObject__I
   1001c405     00008b68     00007a3c   app_ble_uartlog_pem3.oem3 (.text:xdc_runtime_LoggerCallback_Object__create__S)
ti_sysbios_knl_Task_startup__E  $Tramp$TT$L$PI$$ti_sysbios_knl_Task_startup__E
   1001c309     00008b70     000079ec   app_ble_uartlog_pem3.oem3 (.text:ti_sysbios_BIOS_startFunc__I)
ti_sysbios_knl_Swi_startup__E  $Tramp$TT$L$PI$$ti_sysbios_knl_Swi_startup__E
   1001c23d     00008b78     000079e8   app_ble_uartlog_pem3.oem3 (.text:ti_sysbios_BIOS_startFunc__I)
ti_sysbios_hal_Hwi_startup__E  $Tramp$TT$L$PI$$ti_sysbios_hal_Hwi_startup__E
   1001c28d     00008b80     000079e4   app_ble_uartlog_pem3.oem3 (.text:ti_sysbios_BIOS_startFunc__I)
ti_sysbios_family_arm_cc26xx_Timer_startup__E  $Tramp$TT$L$PI$$ti_sysbios_family_arm_cc26xx_Timer_startup__E
   1001b795     00008b88     000079e0   app_ble_uartlog_pem3.oem3 (.text:ti_sysbios_BIOS_startFunc__I)
xdc_runtime_System_atexit__E  $Tramp$TT$L$PI$$xdc_runtime_System_atexit__E
   1001c681     00008b90     000079d8   app_ble_uartlog_pem3.oem3 (.text:ti_sysbios_BIOS_startFunc__I)
ti_sysbios_BIOS_setThreadType__E  $Tramp$TT$L$PI$$ti_sysbios_BIOS_setThreadType__E
   1001c045     00008b98     000079a4   app_ble_uartlog_pem3.oem3 (.text:ti_sysbios_BIOS_atExitFunc__I)
                             0000869a   app_ble_uartlog_pem3.oem3 (.text:ti_sysbios_BIOS_exitFunc__I)
ti_sysbios_hal_Hwi_create  $Tramp$TT$L$PI$$ti_sysbios_hal_Hwi_create
   1001ab79     00008ba0     0000729c   icall.obj (.text:ICall_primRegisterISR$6)
                             000072d0   icall.obj (.text:ICall_primRegisterISR_Ext$6)
ti_sysbios_knl_Task_construct  $Tramp$TT$L$PI$$ti_sysbios_knl_Task_construct
   1001b125     00008ba8     00006c3a   peripheral.obj (.text:GAPRole_createTask)
                             00006f5c   project_zero.obj (.text:ProjectZero_createTask)
xdc_runtime_System_exit__E  $Tramp$TT$L$PI$$xdc_runtime_System_exit__E
   1001c7d1     00008bb0     00006ae4   boot.aem3 : boot.oem3 (.text)
                             000086a0   app_ble_uartlog_pem3.oem3 (.text:ti_sysbios_BIOS_exitFunc__I)
ti_sysbios_knl_Semaphore_create  $Tramp$TT$L$PI$$ti_sysbios_knl_Semaphore_create
   1001b5ad     00008bb8     00006648   icall.obj (.text:ICall_newTask$6)
ti_sysbios_knl_Queue_enqueue__E  $Tramp$TT$L$PI$$ti_sysbios_knl_Queue_enqueue__E
   1001c1b5     00008bc0     0000622e   project_zero.obj (.text:user_enqueueCharDataMsg)
                             00006b70   project_zero.obj (.text:user_enqueueRawAppMsg)
ti_sysbios_knl_Task_create  $Tramp$TT$L$PI$$ti_sysbios_knl_Task_create
   1001ae19     00008bc8     000059b2   icall.obj (.text:ICall_createRemoteTasks)
                             00006bf2   icall.obj (.text:ICall_primCreateTask$6)
ti_sysbios_knl_Task_Params__init__S  $Tramp$TT$L$PI$$ti_sysbios_knl_Task_Params__init__S
   1001c1d9     00008bd0     00005994   icall.obj (.text:ICall_createRemoteTasks)
                             00006bdc   icall.obj (.text:ICall_primCreateTask$6)
                             00006c1a   peripheral.obj (.text:GAPRole_createTask)
                             00006f3e   project_zero.obj (.text:ProjectZero_createTask)
ti_sysbios_knl_Clock_create  $Tramp$TT$L$PI$$ti_sysbios_knl_Clock_create
   1001b3ed     00008bd8     00004f66   icall.obj (.text:ICall_primSetTimer$6)
ti_sysbios_knl_Clock_scheduleNextTick__E  $Tramp$TT$L$PI$$ti_sysbios_knl_Clock_scheduleNextTick__E
   1001bebd     00008be0     00004e82   rom_sysbios.aem3 : rom_sysbios.obj (.text:ti_sysbios_knl_Clock_workFuncDynamic__E)
ti_sysbios_knl_Clock_walkQueueDynamic__E  $Tramp$TT$L$PI$$ti_sysbios_knl_Clock_walkQueueDynamic__E
   1001a80d     00008be8     00004e4a   rom_sysbios.aem3 : rom_sysbios.obj (.text:ti_sysbios_knl_Clock_workFuncDynamic__E)
                             00004e66                    : rom_sysbios.obj (.text:ti_sysbios_knl_Clock_workFuncDynamic__E)
ti_sysbios_knl_Clock_TimerProxy_getCurrentTick__E  $Tramp$TT$L$PI$$ti_sysbios_knl_Clock_TimerProxy_getCurrentTick__E
   1001c095     00008bf0     00004e18   rom_sysbios.aem3 : rom_sysbios.obj (.text:ti_sysbios_knl_Clock_workFuncDynamic__E)
                             00007cae                    : rom_sysbios.obj (.text:ti_sysbios_knl_Clock_getTicksUntilInterrupt__E)
ti_sysbios_BIOS_start__E  $Tramp$TT$L$PI$$ti_sysbios_BIOS_start__E
   1001c055     00008bf8     00004708   main.obj (.text:main)
ti_sysbios_family_arm_m3_Hwi_enableInterrupt__E  $Tramp$TT$L$PI$$ti_sysbios_family_arm_m3_Hwi_enableInterrupt__E
   1001b2dd     00008c00     000043ac   rf_singleMode_cc26xxware.aem3 : RFCC26XX_singleMode.oem3 (.text:fsmPowerUpState)
                             00008ab0   scif_framework.obj (.text:osalEnableCtrlReadyInt$17)
                             00008abc   scif_framework.obj (.text:scifOsalEnableTaskAlertInt)
ti_sysbios_knl_Semaphore_post__E  $Tramp$TT$L$PI$$ti_sysbios_knl_Semaphore_post__E
   1001ac41     00008c08     0000420a   icall.obj (.text:ICall_primWaitMatch$6)
                             00005042   drivers_cc26xxware.aem3 : PINCC26XX.oem3 (.text:PIN_open)
                             0000572a   icall.obj (.text:ICall_primSend$6)
                             00005846   rf_singleMode_cc26xxware.aem3 : RFCC26XX_singleMode.oem3 (.text:fsmPowerDownState)
                             00006236   project_zero.obj (.text:user_enqueueCharDataMsg)
                             0000661c   rf_singleMode_cc26xxware.aem3 : RFCC26XX_singleMode.oem3 (.text:syncCb)
                             00006b76   project_zero.obj (.text:user_enqueueRawAppMsg)
                             00007e4a   scif_framework.obj (.text:osalCtrlReadyIsr$17)
                             00008556   peripheral.obj (.text:gapRole_setEvent$15)
                             00008918   icall.obj (.text:ICall_primSignal$6)
ti_sysbios_knl_Semaphore_pend__E  $Tramp$TT$L$PI$$ti_sysbios_knl_Semaphore_pend__E
   1001a0cd     00008c10     00004180   icall.obj (.text:ICall_primWaitMatch$6)
                             00004fda   drivers_cc26xxware.aem3 : PINCC26XX.oem3 (.text:PIN_open)
                             000052d4   rf_singleMode_cc26xxware.aem3 : RFCC26XX_singleMode.oem3 (.text:RF_pendCmd)
                             000064d4   icall.obj (.text:ICall_primWait$6)
ti_sysbios_knl_Clock_getTicks__E  $Tramp$TT$L$PI$$ti_sysbios_knl_Clock_getTicks__E
   1001b6d9     00008c18     00004168   icall.obj (.text:ICall_primWaitMatch$6)
                             000041d6   icall.obj (.text:ICall_primWaitMatch$6)
                             00008842   icall.obj (.text:ICall_primGetTicks$6)
ti_sysbios_knl_Task_self__E  $Tramp$TT$L$PI$$ti_sysbios_knl_Task_self__E
   1001c1e5     00008c20     0000411e   icall.obj (.text:ICall_primWaitMatch$6)
                             00005dfc   icall.obj (.text:ICall_primEnroll$6)
                             00005f88   icall.obj (.text:ICall_primThreadServes$6)
                             0000629c   icall.obj (.text:ICall_primFetchMsg$6)
                             00006494   icall.obj (.text:ICall_primWait$6)
                             00006538   icall.obj (.text:ICall_primRegisterApp$6)
                             00006674   icall.obj (.text:ICall_primGetEntityId$6)
xdc_runtime_System_abortSpin__E  $Tramp$TT$L$PI$$xdc_runtime_System_abortSpin__E
   1001c899     00008c28     00003822   drivers_cc26xxware.aem3 : PowerCC26XX_calibrateRCOSC.oem3 (.text:PowerCC26XX_doCalibrate)
                             00005e7a                           : PowerCC26XX_calibrateRCOSC.oem3 (.text:PowerCC26XX_RCOSC_clockFunc)
ti_sysbios_knl_Swi_construct  $Tramp$TT$L$PI$$ti_sysbios_knl_Swi_construct
   1001b085     00008c30     00003530   drivers_cc26xxware.aem3 : PINCC26XX.oem3 (.text:PIN_init)
                             00003bae   rf_singleMode_cc26xxware.aem3 : RFCC26XX_singleMode.oem3 (.text:rf_init)
                             00003bee                                 : RFCC26XX_singleMode.oem3 (.text:rf_init)
ti_sysbios_knl_Swi_Params__init__S  $Tramp$TT$L$PI$$ti_sysbios_knl_Swi_Params__init__S
   1001c1cd     00008c38     0000351e   drivers_cc26xxware.aem3 : PINCC26XX.oem3 (.text:PIN_init)
                             00003b9c   rf_singleMode_cc26xxware.aem3 : RFCC26XX_singleMode.oem3 (.text:rf_init)
                             00003bde                                 : RFCC26XX_singleMode.oem3 (.text:rf_init)
ti_sysbios_family_arm_m3_Hwi_construct  $Tramp$TT$L$PI$$ti_sysbios_family_arm_m3_Hwi_construct
   1001af29     00008c40     00003512   drivers_cc26xxware.aem3 : PINCC26XX.oem3 (.text:PIN_init)
                             00003bd2   rf_singleMode_cc26xxware.aem3 : RFCC26XX_singleMode.oem3 (.text:rf_init)
                             00003c12                                 : RFCC26XX_singleMode.oem3 (.text:rf_init)
                             00005a40   drivers_cc26xxware.aem3 : PowerCC26XX.oem3 (.text:PowerCC26XX_calibrate)
                             000074dc   scif_framework.obj (.text:osalRegisterCtrlReadyInt$17)
                             00007510   scif_framework.obj (.text:osalRegisterTaskAlertInt$17)
ti_sysbios_family_arm_m3_Hwi_Params__init__S  $Tramp$TT$L$PI$$ti_sysbios_family_arm_m3_Hwi_Params__init__S
   1001c13d     00008c48     000034fc   drivers_cc26xxware.aem3 : PINCC26XX.oem3 (.text:PIN_init)
                             00003bba   rf_singleMode_cc26xxware.aem3 : RFCC26XX_singleMode.oem3 (.text:rf_init)
                             00003bfa                                 : RFCC26XX_singleMode.oem3 (.text:rf_init)
                             000074c6   scif_framework.obj (.text:osalRegisterCtrlReadyInt$17)
                             000074fa   scif_framework.obj (.text:osalRegisterTaskAlertInt$17)
ti_sysbios_knl_Semaphore_construct  $Tramp$TT$L$PI$$ti_sysbios_knl_Semaphore_construct
   1001b709     00008c50     0000349a   drivers_cc26xxware.aem3 : PINCC26XX.oem3 (.text:PIN_init)
                             000047c0   rf_singleMode_cc26xxware.aem3 : RFCC26XX_singleMode.oem3 (.text:RF_open)
                             0000712c   scif_framework.obj (.text:scifOsalInit)
ti_sysbios_knl_Semaphore_Params__init__S  $Tramp$TT$L$PI$$ti_sysbios_knl_Semaphore_Params__init__S
   1001c1c1     00008c58     00003488   drivers_cc26xxware.aem3 : PINCC26XX.oem3 (.text:PIN_init)
                             000047b0   rf_singleMode_cc26xxware.aem3 : RFCC26XX_singleMode.oem3 (.text:RF_open)
                             0000711e   scif_framework.obj (.text:scifOsalInit)
ti_sysbios_knl_Task_restore__E  $Tramp$TT$L$PI$$ti_sysbios_knl_Task_restore__E
   1001ba49     00008c60     00002a0c   drivers_cc26xxware.aem3 : PowerCC26XX.oem3 (.text:Power_sleep)
                             000059d0   icall.obj (.text:ICall_createRemoteTasks)
                             00008648   icall.obj (.text:ICall_leaveCSImpl)
ti_sysbios_knl_Swi_restore__E  $Tramp$TT$L$PI$$ti_sysbios_knl_Swi_restore__E
   1001b5e1     00008c68     00002a02   drivers_cc26xxware.aem3 : PowerCC26XX.oem3 (.text:Power_sleep)
                             00003390   rf_singleMode_cc26xxware.aem3 : RFCC26XX_singleMode.oem3 (.text:abortCmd)
                             000052a2                                 : RFCC26XX_singleMode.oem3 (.text:RF_pendCmd)
                             000052c8                                 : RFCC26XX_singleMode.oem3 (.text:RF_pendCmd)
                             000052e6                                 : RFCC26XX_singleMode.oem3 (.text:RF_pendCmd)
ti_sysbios_knl_Swi_disable__E  $Tramp$TT$L$PI$$ti_sysbios_knl_Swi_disable__E
   1001c0d5     00008c70     0000285e   drivers_cc26xxware.aem3 : PowerCC26XX.oem3 (.text:Power_sleep)
                             0000334e   rf_singleMode_cc26xxware.aem3 : RFCC26XX_singleMode.oem3 (.text:abortCmd)
                             0000528c                                 : RFCC26XX_singleMode.oem3 (.text:RF_pendCmd)
                             0000799a   app_ble_uartlog_pem3.oem3 (.text:ti_sysbios_BIOS_atExitFunc__I)
ti_sysbios_knl_Task_disable__E  $Tramp$TT$L$PI$$ti_sysbios_knl_Task_disable__E
   1001c0f5     00008c78     00002846   drivers_cc26xxware.aem3 : PowerCC26XX.oem3 (.text:Power_sleep)
                             00005986   icall.obj (.text:ICall_createRemoteTasks)
                             0000799e   app_ble_uartlog_pem3.oem3 (.text:ti_sysbios_BIOS_atExitFunc__I)
                             00008362   icall.obj (.text:ICall_enterCSImpl)
                             00008816   icall.obj (.text:ICall_primDisableMInt$6)
ti_sysbios_knl_Clock_construct  $Tramp$TT$L$PI$$ti_sysbios_knl_Clock_construct
   1001b579     00008c80     000023ea   scTask.obj (.text:SC_init)
                             00003c1e   rf_singleMode_cc26xxware.aem3 : RFCC26XX_singleMode.oem3 (.text:rf_init)
                             00003e0e   drivers_cc26xxware.aem3 : PowerCC26XX.oem3 (.text:Power_init)
                             00003e1c                           : PowerCC26XX.oem3 (.text:Power_init)
                             00003e2a                           : PowerCC26XX.oem3 (.text:Power_init)
                             000047dc   rf_singleMode_cc26xxware.aem3 : RFCC26XX_singleMode.oem3 (.text:RF_open)
                             00005a30   drivers_cc26xxware.aem3 : PowerCC26XX.oem3 (.text:PowerCC26XX_calibrate)
                             00007476   util.obj (.text:Util_constructClock)
ti_sysbios_knl_Clock_start__E  $Tramp$TT$L$PI$$ti_sysbios_knl_Clock_start__E
   1001bfe3     00008c88     00001fa0   rf_singleMode_cc26xxware.aem3 : RFCC26XX_singleMode.oem3 (.text:fsmActiveState)
                             000036b4                                 : RFCC26XX_singleMode.oem3 (.text:RF_postCmd)
                             000038a0   drivers_cc26xxware.aem3 : PowerCC26XX_calibrateRCOSC.oem3 (.text:PowerCC26XX_doCalibrate)
                             00003ea8                           : PowerCC26XX.oem3 (.text:Power_init)
                             00004838   power_cc26xx_tirtos.aem3 : PowerCC26XX_tirtos.oem3 (.text:PowerCC26XX_standbyPolicy)
                             00004fb8   icall.obj (.text:ICall_primSetTimer$6)
                             000050ae   drivers_cc26xxware.aem3 : PowerCC26XX.oem3 (.text:switchXOSCHFclockFunc)
                             00005338                           : PowerCC26XX.oem3 (.text:disableLFClockQualifiers)
                             00005dd8   rf_singleMode_cc26xxware.aem3 : RFCC26XX_singleMode.oem3 (.text:decActiveClientCnt)
                             000061c2                                 : RFCC26XX_singleMode.oem3 (.text:fsmXOSCState)
                             0000632a   drivers_cc26xxware.aem3 : PowerCC26XX.oem3 (.text:configureXOSCHF)
                             000070c0   util.obj (.text:Util_restartClock)
                             000081be   rom_sysbios.aem3 : rom_sysbios.obj (.text:ti_sysbios_knl_Clock_stop__E)
ti_sysbios_knl_Clock_setTimeout__E  $Tramp$TT$L$PI$$ti_sysbios_knl_Clock_setTimeout__E
   1001c2c1     00008c90     00001f98   rf_singleMode_cc26xxware.aem3 : RFCC26XX_singleMode.oem3 (.text:fsmActiveState)
                             000036ae                                 : RFCC26XX_singleMode.oem3 (.text:RF_postCmd)
                             00003ea2   drivers_cc26xxware.aem3 : PowerCC26XX.oem3 (.text:Power_init)
                             00004832   power_cc26xx_tirtos.aem3 : PowerCC26XX_tirtos.oem3 (.text:PowerCC26XX_standbyPolicy)
                             00004fb2   icall.obj (.text:ICall_primSetTimer$6)
                             000050a8   drivers_cc26xxware.aem3 : PowerCC26XX.oem3 (.text:switchXOSCHFclockFunc)
                             00005332                           : PowerCC26XX.oem3 (.text:disableLFClockQualifiers)
                             00005dd2   rf_singleMode_cc26xxware.aem3 : RFCC26XX_singleMode.oem3 (.text:decActiveClientCnt)
                             000061bc                                 : RFCC26XX_singleMode.oem3 (.text:fsmXOSCState)
                             00006324   drivers_cc26xxware.aem3 : PowerCC26XX.oem3 (.text:configureXOSCHF)
                             000070ba   util.obj (.text:Util_restartClock)
ti_sysbios_knl_Clock_Params__init__S  $Tramp$TT$L$PI$$ti_sysbios_knl_Clock_Params__init__S
   1001c185     00008c98     000019aa   project_zero.obj (.text:ProjectZero_init$0)
                             000023d8   scTask.obj (.text:SC_init)
                             00003df6   drivers_cc26xxware.aem3 : PowerCC26XX.oem3 (.text:Power_init)
                             000047cc   rf_singleMode_cc26xxware.aem3 : RFCC26XX_singleMode.oem3 (.text:RF_open)
                             00004f52   icall.obj (.text:ICall_primSetTimer$6)
                             00005a18   drivers_cc26xxware.aem3 : PowerCC26XX.oem3 (.text:PowerCC26XX_calibrate)
                             00007462   util.obj (.text:Util_constructClock)
ti_sysbios_knl_Task_exit__E  $Tramp$TT$L$PI$$ti_sysbios_knl_Task_exit__E
   1001b429     00008ca0     0000199e   project_zero.obj (.text:ProjectZero_init$0)
ti_sysbios_knl_Queue_construct  $Tramp$TT$L$PI$$ti_sysbios_knl_Queue_construct
   1001b8f5     00008ca8     00001988   project_zero.obj (.text:ProjectZero_init$0)
ti_sysbios_family_arm_m3_Hwi_restoreFxn__E  $Tramp$TT$L$PI$$ti_sysbios_family_arm_m3_Hwi_restoreFxn__E
   1001c219     00008cb0     00000f3a   project_zero.obj (.text:ProjectZero_taskFxn$0)
                             00001f5e   rf_singleMode_cc26xxware.aem3 : RFCC26XX_singleMode.oem3 (.text:fsmActiveState)
                             00001fd6                                 : RFCC26XX_singleMode.oem3 (.text:fsmActiveState)
                             00002494   scTask.obj (.text:SC_init)
                             000024ec   scTask.obj (.text:SC_init)
                             00003278   rf_singleMode_cc26xxware.aem3 : RFCC26XX_singleMode.oem3 (.text:abortCmd)
                             000032be                                 : RFCC26XX_singleMode.oem3 (.text:abortCmd)
                             000032d8                                 : RFCC26XX_singleMode.oem3 (.text:abortCmd)
                             00003362                                 : RFCC26XX_singleMode.oem3 (.text:abortCmd)
                             0000339a                                 : RFCC26XX_singleMode.oem3 (.text:abortCmd)
                             00003654                                 : RFCC26XX_singleMode.oem3 (.text:RF_postCmd)
                             00003692                                 : RFCC26XX_singleMode.oem3 (.text:RF_postCmd)
                             000036fa                                 : RFCC26XX_singleMode.oem3 (.text:RF_postCmd)
                             000044a2   drivers_cc26xxware.aem3 : PowerCC26XX.oem3 (.text:Power_releaseDependency)
                             00004646                           : PowerCC26XX.oem3 (.text:Power_setDependency)
                             00004768   rf_singleMode_cc26xxware.aem3 : RFCC26XX_singleMode.oem3 (.text:RF_open)
                             00004776                                 : RFCC26XX_singleMode.oem3 (.text:RF_open)
                             00004a0c   drivers_cc26xxware.aem3 : PINCC26XX.oem3 (.text:PINCC26XX_setIoCfg)
                             00004ae6   scif_framework.obj (.text:scifCtrlTasksNbl$17)
                             00004af2   scif_framework.obj (.text:scifCtrlTasksNbl$17)
                             00004bc6   rf_singleMode_cc26xxware.aem3 : RFCC26XX_singleMode.oem3 (.text:swiFxnHw)
                             00004be0                                 : RFCC26XX_singleMode.oem3 (.text:swiFxnHw)
                             00004cae   TRNGCC26XX.obj (.text:TRNGCC26XX_getNumber)
                             000050d6   drivers_cc26xxware.aem3 : PowerCC26XX.oem3 (.text:switchXOSCHFclockFunc)
                             00005468   uart_logs.obj (.text:uartLog_outputFxn)
                             00005b38   rf_singleMode_cc26xxware.aem3 : RFCC26XX_singleMode.oem3 (.text:RF_getCurrentTime)
                             00005b40                                 : RFCC26XX_singleMode.oem3 (.text:RF_getCurrentTime)
                             00005bde                                 : RFCC26XX_singleMode.oem3 (.text:RF_getInfo)
                             00005dde                                 : RFCC26XX_singleMode.oem3 (.text:decActiveClientCnt)
                             00006162   drivers_cc26xxware.aem3 : PowerCC26XX_calibrateRCOSC.oem3 (.text:PowerCC26XX_initiateCalibration)
                             0000647e   rf_singleMode_cc26xxware.aem3 : RFCC26XX_singleMode.oem3 (.text:ratChanFree)
                             0000692e                                 : RFCC26XX_singleMode.oem3 (.text:RF_getRssi)
                             00006f86                                 : RFCC26XX_singleMode.oem3 (.text:postDirImmCmd)
                             00006f9a                                 : RFCC26XX_singleMode.oem3 (.text:postDirImmCmd)
                             0000740c   drivers_cc26xxware.aem3 : PowerCC26XX.oem3 (.text:PowerCC26XX_isStableXOSC_HF)
                             00007448   rf_singleMode_cc26xxware.aem3 : RFCC26XX_singleMode.oem3 (.text:Q_push)
                             0000792c   drivers_cc26xxware.aem3 : PowerCC26XX.oem3 (.text:Power_releaseConstraint)
                             0000795c                           : PowerCC26XX.oem3 (.text:Power_setConstraint)
                             00007db6                           : PowerCC26XX.oem3 (.text:PowerCC26XX_switchXOSC_HF)
                             00007e2a   TRNGCC26XX.obj (.text:TRNGCC26XX_init)
                             00007f20   drivers_cc26xxware.aem3 : List.oem3 (.text:List_put)
                             000082c6   TRNGCC26XX.obj (.text:TRNGCC26XX_open)
                             000084c8   rf_singleMode_cc26xxware.aem3 : RFCC26XX_singleMode.oem3 (.text:Q_pop)
                             00008640   icall.obj (.text:ICall_leaveCSImpl)
ti_sysbios_family_arm_m3_Hwi_disableFxn__E  $Tramp$TT$L$PI$$ti_sysbios_family_arm_m3_Hwi_disableFxn__E
   1001c149     00008cb8     00000f24   project_zero.obj (.text:ProjectZero_taskFxn$0)
                             00001f38   rf_singleMode_cc26xxware.aem3 : RFCC26XX_singleMode.oem3 (.text:fsmActiveState)
                             00001fc2                                 : RFCC26XX_singleMode.oem3 (.text:fsmActiveState)
                             00002476   scTask.obj (.text:SC_init)
                             000024b8   scTask.obj (.text:SC_init)
                             00003216   rf_singleMode_cc26xxware.aem3 : RFCC26XX_singleMode.oem3 (.text:abortCmd)
                             000035a0                                 : RFCC26XX_singleMode.oem3 (.text:RF_postCmd)
                             00003670                                 : RFCC26XX_singleMode.oem3 (.text:RF_postCmd)
                             000043ee   drivers_cc26xxware.aem3 : PowerCC26XX.oem3 (.text:Power_releaseDependency)
                             00004596                           : PowerCC26XX.oem3 (.text:Power_setDependency)
                             0000475e   rf_singleMode_cc26xxware.aem3 : RFCC26XX_singleMode.oem3 (.text:RF_open)
                             000049ee   drivers_cc26xxware.aem3 : PINCC26XX.oem3 (.text:PINCC26XX_setIoCfg)
                             00004adc   scif_framework.obj (.text:scifCtrlTasksNbl$17)
                             00004b82   rf_singleMode_cc26xxware.aem3 : RFCC26XX_singleMode.oem3 (.text:swiFxnHw)
                             00004c30   TRNGCC26XX.obj (.text:TRNGCC26XX_getNumber)
                             00005060   drivers_cc26xxware.aem3 : PowerCC26XX.oem3 (.text:switchXOSCHFclockFunc)
                             000053fe   uart_logs.obj (.text:uartLog_outputFxn)
                             00005b2a   rf_singleMode_cc26xxware.aem3 : RFCC26XX_singleMode.oem3 (.text:RF_getCurrentTime)
                             00005b98                                 : RFCC26XX_singleMode.oem3 (.text:RF_getInfo)
                             00005d98                                 : RFCC26XX_singleMode.oem3 (.text:decActiveClientCnt)
                             0000614e   drivers_cc26xxware.aem3 : PowerCC26XX_calibrateRCOSC.oem3 (.text:PowerCC26XX_initiateCalibration)
                             00006440   rf_singleMode_cc26xxware.aem3 : RFCC26XX_singleMode.oem3 (.text:ratChanFree)
                             0000691e                                 : RFCC26XX_singleMode.oem3 (.text:RF_getRssi)
                             00006f70                                 : RFCC26XX_singleMode.oem3 (.text:postDirImmCmd)
                             000073ea   drivers_cc26xxware.aem3 : PowerCC26XX.oem3 (.text:PowerCC26XX_isStableXOSC_HF)
                             0000742a   rf_singleMode_cc26xxware.aem3 : RFCC26XX_singleMode.oem3 (.text:Q_push)
                             00007432                                 : RFCC26XX_singleMode.oem3 (.text:Q_push)
                             0000790c   drivers_cc26xxware.aem3 : PowerCC26XX.oem3 (.text:Power_releaseConstraint)
                             0000793c                           : PowerCC26XX.oem3 (.text:Power_setConstraint)
                             00007d9a                           : PowerCC26XX.oem3 (.text:PowerCC26XX_switchXOSC_HF)
                             00007e12   TRNGCC26XX.obj (.text:TRNGCC26XX_init)
                             000082ba   TRNGCC26XX.obj (.text:TRNGCC26XX_open)
                             0000836c   icall.obj (.text:ICall_enterCSImpl)
                             000084bc   rf_singleMode_cc26xxware.aem3 : RFCC26XX_singleMode.oem3 (.text:Q_pop)
                             0000881a   icall.obj (.text:ICall_primDisableMInt$6)
                             00008ac6   tirtosport.aem3 : HwiP_tirtos.oem3 (.text:HwiP_disable)
ti_sysbios_knl_Task_sleep__E  $Tramp$TT$L$PI$$ti_sysbios_knl_Task_sleep__E
   1001a96d     00008cc0     00000ada   project_zero.obj (.text:ProjectZero_taskFxn$0)
                             00000b02   project_zero.obj (.text:ProjectZero_taskFxn$0)
                             00001c58   project_zero.obj (.text:ProjectZero_init$0)
ti_sysbios_knl_Queue_dequeue__E  $Tramp$TT$L$PI$$ti_sysbios_knl_Queue_dequeue__E
   1001c1a9     00008cc8     0000075c   project_zero.obj (.text:ProjectZero_taskFxn$0)
ti_sysbios_knl_Queue_empty__E  $Tramp$TT$L$PI$$ti_sysbios_knl_Queue_empty__E
   1001c113     00008cd0     0000074e   project_zero.obj (.text:ProjectZero_taskFxn$0)

[60 trampolines]
[241 trampoline calls]


GLOBAL SYMBOLS: SORTED ALPHABETICALLY BY Name 

address   name                                                                      
-------   ----                                                                      
10014c00  A1_rw                                                                     
10019ffe  A2_rw                                                                     
10019ffc  A3_rw                                                                     
20004f2c  A4_rw                                                                     
20004f7c  ACCX                                                                      
20004f80  ACCY                                                                      
20004f84  ACCZ                                                                      
10015229  ATOMICPATTERN                                                             
000055e5  Adc_service_SetParameter                                                  
10016c29  AddRoundKeySubBytes_Sw                                                    
10018a19  AesCcm_authEncrypt_Sw                                                     
10018a35  AesCcm_decryptAuth_Sw                                                     
10018b09  AesCcm_getNumBlocks_Sw                                                    
10018ac5  Aes_decrypt_Sw                                                            
10018a99  Aes_encrypt_Sw                                                            
00006a75  AssertHandler                                                             
0000a9c4  BoardGpioInitTable                                                        
00008ad7  C$$EXIT                                                                   
000070fb  C$$IO$$                                                                   
20004f2c  COMMON_RAM_BASE_ADDR                                                      
10014c01  COMMON_ROM_BASE_ADDR                                                      
10015a6d  COPY                                                                      
00000501  DefaultAssertCback                                                        
10017959  ECC_allocWorkzone                                                         
10017961  ECC_setWin                                                                
10017969  ECDSA_sign                                                                
10017b01  ECDSA_verif                                                               
10015a11  EXPORTOPERAND                                                             
20004f78  EXPW                                                                      
20004f6c  EXPX                                                                      
20004f70  EXPY                                                                      
20004f74  EXPZ                                                                      
10016f58  FFMult2                                                                   
10017058  FFMult3                                                                   
10016d05  FFMult_Sw                                                                 
10018d6c  Fill1                                                                     
000071e1  GAPBondMgr_SetParameter                                                   
00003ca9  GAPRole_GetParameter                                                      
000025dd  GAPRole_SetParameter                                                      
000067ed  GAPRole_TerminateConnection                                               
00006c0d  GAPRole_createTask                                                        
00008779  GAP_EndDiscoverable                                                       
00006d8d  GAP_GetParamValue                                                         
00007215  GAP_SetParamValue                                                         
000064e5  GAP_UpdateAdvertisingData                                                 
0000806d  GATTServApp_InitCharCfg                                                   
0000556d  GATTServApp_ProcessCharCfg                                                
00006dc9  GATTServApp_RegisterService                                               
000083b1  GATT_bm_free                                                              
10015141  GETBIT                                                                    
10015155  GETDIGIT                                                                  
100151a5  GETDIGITL2R                                                               
20001584  Grad                                                                      
20001588  GradArray                                                                 
2000158c  GradArray2                                                                
00007ae5  HCI_EXT_ConnEventNoticeCmd                                                
20001638  HEAPMGR_SIZE                                                              
00006c4d  HOSTclose                                                                 
00005a59  HOSTlseek                                                                 
00005f19  HOSTopen                                                                  
000060e5  HOSTread                                                                  
00005d31  HOSTrename                                                                
00006c8d  HOSTunlink                                                                
00006245  HOSTwrite                                                                 
00008ac7  HwiP_disable                                                              
1001c219  HwiP_restore                                                              
00006e05  ICallPlatform_pwrConfigACAction                                           
000083c9  ICallPlatform_pwrDispense                                                 
000087f9  ICallPlatform_pwrGetTransitionState                                       
00008789  ICallPlatform_pwrGetXOSCStartupTime                                       
00008807  ICallPlatform_pwrIsStableXOSCHF                                           
000077e9  ICallPlatform_pwrRegisterNotify                                           
000083e1  ICallPlatform_pwrRequire                                                  
000089ed  ICallPlatform_pwrSwitchXOSCHF                                             
00005659  ICallPlatform_pwrUpdActivityCounter                                       
00005981  ICall_createRemoteTasks                                                   
20001614  ICall_dispatcher                                                          
00008361  ICall_enterCSImpl                                                         
2000161c  ICall_enterCriticalSection                                                
00007b11  ICall_heapFree                                                            
000051fd  ICall_heapMalloc                                                          
00008639  ICall_leaveCSImpl                                                         
20001620  ICall_leaveCriticalSection                                                
000072e5  ICall_searchServiceEntity                                                 
10015a35  IMPORTDATA                                                                
100159a9  IMPORTLENGTH                                                              
100159ad  IMPORTMODULUS                                                             
100159d1  IMPORTOPERAND                                                             
0000aa5c  INTERVAL_ServiceCBs                                                       
1001568d  INVERT                                                                    
0000aade  IntervalServiceUUID                                                       
00003039  IntervalService_SetParameter                                              
10016da1  InvAddRoundKey_Sw                                                         
10016ed5  InvMixColumns_Sw                                                          
10016dc9  InvRoundKey_Sw                                                            
10017264  InvSbox                                                                   
10016ea1  InvShiftRows_Sw                                                           
10016e8d  InvSubBytes_Sw                                                            
100154f5  JACADD                                                                    
20004fe8  LEN                                                                       
100158ac  LUTC                                                                      
100158dc  LUTINCI                                                                   
100158f4  LUTJ                                                                      
1001588c  LUTOPCODE                                                                 
10015894  LUTOPSIGN                                                                 
100158c4  LUTSE                                                                     
1001596c  LUTSTATE                                                                  
00008a01  List_empty                                                                
00000481  List_head                                                                 
00008acb  List_next                                                                 
00007f01  List_put                                                                  
10018825  MB_ClearInts                                                              
100187f5  MB_DisableInts                                                            
10018835  MB_EnableHWInts                                                           
10018799  MB_EnableInts                                                             
10018945  MB_FwDebugDump                                                            
10018755  MB_Init                                                                   
10018935  MB_ReadMailboxStatus                                                      
1001893d  MB_RegisterIsrCback                                                       
10018865  MB_SendCommand                                                            
100188a5  MB_SendCommandSynch                                                       
20004fe4  MOD                                                                       
20004fd8  MSBMOD                                                                    
10016c79  MixColumns_Sw                                                             
10018b9c  NIST_Curve_P256_Gx                                                        
10018bc0  NIST_Curve_P256_Gy                                                        
10018b54  NIST_Curve_P256_a                                                         
10018b78  NIST_Curve_P256_b                                                         
10018b0c  NIST_Curve_P256_p                                                         
10018b30  NIST_Curve_P256_r                                                         
00007d49  NOROM_AONBatMonTemperatureGetDegC                                         
000086bd  NOROM_AONRTCCurrent64BitValueGet                                          
00008441  NOROM_AONRTCCurrentCompareValueGet                                        
00008921  NOROM_CPUcpsid                                                            
0000892d  NOROM_CPUcpsie                                                            
00006835  NOROM_ChipInfo_GetChipFamily                                              
00008459  NOROM_ChipInfo_GetPackageType                                             
00006ccd  NOROM_DDI16BitfieldRead                                                   
0000687d  NOROM_DDI16BitfieldWrite                                                  
0000734d  NOROM_DDI32RegWrite                                                       
00008265  NOROM_OSCClockSourceGet                                                   
000066bd  NOROM_OSCClockSourceSet                                                   
00005fd1  NOROM_OSCHF_AttemptToSwitchToXosc                                         
000050ed  NOROM_OSCHF_GetStartupTime                                                
00007381  NOROM_OSCHF_SwitchToRcOscTurnOffXosc                                      
00008471  NOROM_OSCHF_TurnOnXosc                                                    
00006e7d  NOROM_OSC_HPOSCRelativeFrequencyOffsetGet                                 
0000421b  NOROM_RFCAdi3VcoLdoVoltageMode                                            
00008489  NOROM_RFCCpeIntGetAndClear                                                
00007d71  NOROM_RFCDoorbellSendTo                                                   
00004f33  NOROM_RFCRTrim                                                            
0000810d  NOROM_RFCRfTrimRead                                                       
000087b9  NOROM_RFCRfTrimSet                                                        
00006eb9  NOROM_RFCSynthPowerDown                                                   
000078a9  NOROM_SetupSetAonRtcSubSecInc                                             
0000884d  NOROM_SetupSignExtendVddrTrimValue                                        
00003a39  NOROM_SetupTrimDevice                                                     
0000602d  NOROM_SysCtrlAdjustRechargeAfterPowerDown                                 
00002a4d  NOROM_SysCtrlSetRechargeBeforePowerDown                                   
00005ac1  NOROM_SysCtrl_DCDC_VoltageConditionalControl                              
000078d9  NOROM_TRNGConfigure                                                       
0000885b  NOROM_VIMSModeGet                                                         
200015aa  OmegaArray                                                                
2000157c  OmegaAve                                                                  
20001580  OmegaAveArray                                                             
10014c04  P1_ro                                                                     
10019ffe  P1_ro_2                                                                   
20004f40  P2_rw                                                                     
20004f40  P2_s0                                                                     
20004fac  P2_zi                                                                     
00007f4d  PINCC26XX_getPinCount                                                     
0000ab5c  PINCC26XX_hwAttrs                                                         
200025c8  PIN_HandleTable                                                           
20002810  PIN_NumPins                                                               
000033d1  PIN_init                                                                  
00004fc9  PIN_open                                                                  
000073b5  PIN_setConfig                                                             
00006ef5  PIN_setOutputValue                                                        
00005e59  PowerCC26XX_RCOSC_clockFunc                                               
00005741  PowerCC26XX_auxISR                                                        
000059ed  PowerCC26XX_calibrate                                                     
0000ab00  PowerCC26XX_config                                                        
00003745  PowerCC26XX_doCalibrate                                                   
000050ed  PowerCC26XX_getXoscStartupTime                                            
0000613d  PowerCC26XX_initiateCalibration                                           
000073e9  PowerCC26XX_isStableXOSC_HF                                               
200012a8  PowerCC26XX_module                                                        
000047f5  PowerCC26XX_standbyPolicy                                                 
00007d99  PowerCC26XX_switchXOSC_HF                                                 
00008939  Power_getConstraintMask                                                   
00008945  Power_getDependencyCount                                                  
0000820b  Power_getTransitionLatency                                                
00008951  Power_getTransitionState                                                  
000084a1  Power_idleFunc                                                            
00003dc9  Power_init                                                                
00007dc1  Power_registerNotify                                                      
00007909  Power_releaseConstraint                                                   
000043e9  Power_releaseDependency                                                   
00007939  Power_setConstraint                                                       
00004591  Power_setDependency                                                       
00002825  Power_sleep                                                               
00006f31  ProjectZero_createTask                                                    
10017158  RCon                                                                      
0000ab82  RFCC26XX_hwAttrs                                                          
10018415  RFHAL_AddTxDataEntry                                                      
100184f9  RFHAL_AllocDataEntry                                                      
100184a9  RFHAL_AllocDataEntryQueue                                                 
10018315  RFHAL_AllocRatChan                                                        
100185e1  RFHAL_BuildDataEntryRingBuffer                                            
10018669  RFHAL_BuildLinkedBuffer                                                   
10018551  RFHAL_BuildRingBuffer                                                     
10018549  RFHAL_FreeDataEntry                                                       
100184c5  RFHAL_FreeDataEntryQueue                                                  
10018485  RFHAL_FreeNextTxDataEntry                                                 
1001833d  RFHAL_FreeRatChan                                                         
100184cd  RFHAL_GetNextDataEntry                                                    
100184d1  RFHAL_GetTempDataEntry                                                    
100183b9  RFHAL_InitDataQueue                                                       
100182ad  RFHAL_InitRfHal                                                           
10018369  RFHAL_MapRatChansToInt                                                    
100184d5  RFHAL_NextDataEntryDone                                                   
100183c5  RFHAL_QueueRFDataEntries                                                  
10018391  RFHAL_RegisterRatChanCallback                                             
000086d1  RF_Params_init                                                            
00003205  RF_cancelCmd                                                              
00008a33  RF_flushCmd                                                               
00008721  RF_getCmdOp                                                               
00005b29  RF_getCurrentTime                                                         
00005b91  RF_getInfo                                                                
0000690d  RF_getRssi                                                                
00004731  RF_open                                                                   
00005281  RF_pendCmd                                                                
00003595  RF_postCmd                                                                
00006955  RF_runCmd                                                                 
000084d1  RF_runDirectCmd                                                           
000084e9  RF_runImmediateCmd                                                        
00006ab9  ResetISR                                                                  
10016b79  RoundKey_Sw                                                               
10015101  SAVEPOINT                                                                 
20004f68  SCAL                                                                      
100150e5  SCALARMUL                                                                 
10014ced  SCALARMUL_core                                                            
10015019  SCALARMUL_final                                                           
10014c05  SCALARMUL_init                                                            
0000236d  SC_init                                                                   
10015a51  SETOPERAND                                                                
10015a91  SETWORD                                                                   
10018089  SHA256_final                                                              
10018129  SHA256_full                                                               
10017ffd  SHA256_init                                                               
10017ef1  SHA256_nextState                                                          
10018019  SHA256_process                                                            
10017e75  SHA256_round                                                              
10017f49  SHA256_saveBuffer                                                         
10017e39  SHA256_updateW                                                            
UNDEFED   SHT$$INIT_ARRAY$$Base                                                     
UNDEFED   SHT$$INIT_ARRAY$$Limit                                                    
10015821  SQUAREMULTIPLYWORD                                                        
10017895  SSP_CCM_Auth_Encrypt_Sw                                                   
10017365  SSP_CCM_Auth_Sw                                                           
1001767d  SSP_CCM_Decrypt_Sw                                                        
100174fd  SSP_CCM_Encrypt_Sw                                                        
100178f5  SSP_CCM_InvAuth_Decrypt_Sw                                                
10017839  SSP_CCM_InvAuth_Sw                                                        
10017771  SSP_CTR_Decrypt_Sw                                                        
100175ed  SSP_CTR_Encrypt_Sw                                                        
00007de9  SafeHapiVoid                                                              
10017164  Sbox                                                                      
10015215  SelectReg                                                                 
10016c45  ShiftRows_Sw                                                              
20004f88  TMP1                                                                      
20004f8c  TMP2                                                                      
20004f90  TMP3                                                                      
20004f94  TMP4                                                                      
20004f98  TMP5                                                                      
20004f9c  TMP6                                                                      
0000ab88  TRNGCC26XXHWAttrs                                                         
0000ab10  TRNGCC26XX_config                                                         
00004c29  TRNGCC26XX_getNumber                                                      
00007e11  TRNGCC26XX_init                                                           
000082b9  TRNGCC26XX_open                                                           
00007451  Util_constructClock                                                       
00006585  Util_convertBdAddr2Str                                                    
000087c9  Util_isActive                                                             
00007095  Util_restartClock                                                         
00008ad3  Util_stopClock                                                            
20001578  VDDarray                                                                  
20001574  VDDstatus                                                                 
10015a85  ZERO                                                                      
00000000  __ASM__                                                                   
200022e0  __CIOBUF_                                                                 
0000007f  __ISA__                                                                   
00000091  __PLAT__                                                                  
20004348  __STACK_END                                                               
00000400  __STACK_SIZE                                                              
20004348  __STACK_TOP                                                               
000000b8  __TARG__                                                                  
0000b040  __TI_CINIT_Base                                                           
0000b0a0  __TI_CINIT_Limit                                                          
0000b000  __TI_Handler_Table_Base                                                   
0000b00c  __TI_Handler_Table_Limit                                                  
00004cc9  __TI_auto_init                                                            
00007c19  __TI_cleanup                                                              
200019a8  __TI_cleanup_ptr                                                          
000048b1  __TI_closefile                                                            
00005c61  __TI_decompress_lzss                                                      
00008869  __TI_decompress_none                                                      
00006709  __TI_doflush                                                              
200019ac  __TI_dtors_ptr                                                            
200019b0  __TI_enable_exit_profile_output                                           
20001114  __TI_ft_end                                                               
ffffffff  __TI_pprof_out_hndl                                                       
ffffffff  __TI_prof_data_size                                                       
ffffffff  __TI_prof_data_start                                                      
00007485  __TI_readmsg                                                              
00000000  __TI_static_base__                                                        
20001118  __TI_tmpnams                                                              
000070cd  __TI_writemsg                                                             
00008975  __TI_zero_init                                                            
000000dd  __TRDR__                                                                  
00007ae3  __aeabi_idiv0                                                             
00007ae3  __aeabi_ldiv0                                                             
00008579  __aeabi_lmul                                                              
000054f1  __aeabi_memclr                                                            
000054f1  __aeabi_memclr4                                                           
000054f1  __aeabi_memclr8                                                           
00004d69  __aeabi_memcpy                                                            
00004d69  __aeabi_memcpy4                                                           
00004d69  __aeabi_memcpy8                                                           
000054f3  __aeabi_memset                                                            
000054f3  __aeabi_memset4                                                           
000054f3  __aeabi_memset8                                                           
00004e9d  __aeabi_uldivmod                                                          
ffffffff  __binit__                                                                 
0000abd0  __c_args__                                                                
0001ffa8  __ccfg                                                                    
10019ffe  __checksum_CommonROM                                                      
10014c00  __checksum_begin_CommonROM                                                
10019ffd  __checksum_end_CommonROM                                                  
0000e0ea  __checksum_value_CommonROM                                                
10018ced  __exit                                                                    
20003f48  __stack                                                                   
00008501  _args_main                                                                
00006ab9  _c_int00                                                                  
200014fc  _device                                                                   
200011b8  _ftable                                                                   
200019cc  _lock                                                                     
000064e3  _nop                                                                      
0000895d  _register_lock                                                            
00008969  _register_unlock                                                          
200014ac  _stream                                                                   
200019d0  _unlock                                                                   
00008ad7  abort                                                                     
0000a808  adc_serviceCBs                                                            
0000aafe  adc_serviceUUID                                                           
0000a814  adc_service_FREQUUID                                                      
0000a824  adc_service_GradientUUID                                                  
0000a834  adc_service_TempUUID                                                      
0000a844  adc_service_VDDUUID                                                       
20001a40  appAssertCback                                                            
0000a9b2  appearanceUUID                                                            
20004fdc  aux64                                                                     
ffffffff  binit                                                                     
0000a9ae  charAggFormatUUID                                                         
0000a9a6  charExtPropsUUID                                                          
0000a9ac  charFormatUUID                                                            
0000a9a8  charUserDescUUID                                                          
0000a99a  characterUUID                                                             
0000a99c  clientCharCfgUUID                                                         
000067a1  copy_in                                                                   
0000ab86  devInfo11073CertUUID                                                      
0000ab30  devInfoCBs                                                                
0000abbc  devInfoFirmwareRevUUID                                                    
0000abbe  devInfoHardwareRevUUID                                                    
0000abc0  devInfoMfrNameUUID                                                        
0000abc2  devInfoModelNumberUUID                                                    
0000abc4  devInfoPnpIdUUID                                                          
0000abc6  devInfoSerialNumberUUID                                                   
0000abc8  devInfoServUUID                                                           
0000abca  devInfoSoftwareRevUUID                                                    
0000abcc  devInfoSystemIdUUID                                                       
0000a9b0  deviceNameUUID                                                            
200007d8  dispHandle                                                                
00008665  driverTable_fnSpinlock                                                    
20002840  driverlib_release_0_46593                                                 
10017dbd  eccRom_genKeys                                                            
10017ded  eccRom_genSharedSecret                                                    
20004fa0  eccRom_param_Gx                                                           
20004fa4  eccRom_param_Gy                                                           
20004f50  eccRom_param_a                                                            
20004fa8  eccRom_param_b                                                            
20004f48  eccRom_param_p                                                            
20004f4c  eccRom_param_r                                                            
20004f40  eccRom_windowSize                                                         
20004f44  eccRom_workzone                                                           
0000a9be  extReportRefUUID                                                          
00006395  fflush                                                                    
0000421d  fputc                                                                     
00008531  free                                                                      
20001576  frequency                                                                 
00005911  fseek                                                                     
20004fcc  fwInfoCmd                                                                 
20000ce8  gapRoleTask                                                               
20000d38  gapRoleTaskStack                                                          
00008549  gapRole_clockHandler                                                      
0000a99e  gapServiceUUID                                                            
0000a9a0  gattServiceUUID                                                           
00005cc9  getdevice                                                                 
20003f48  heapEnd                                                                   
20002843  heapStart                                                                 
20004f58  inPointX                                                                  
20004f5c  inPointY                                                                  
20004f54  inScalar                                                                  
0000a9a4  includeUUID                                                               
0000aa68  is_INTERVAL0UUID                                                          
200019b4  lastAppOpcodeSent                                                         
200015d4  ledPINTable                                                               
20000844  ledPinTable                                                               
20000bd4  linkDBNumConns                                                            
10016551  mADD                                                                      
10015bd5  mINVK                                                                     
10015f81  mMULT                                                                     
10016749  mOUT                                                                      
10015a9d  mSET                                                                      
1001664d  mSUB                                                                      
00004661  main                                                                      
20001a44  main_func_sp                                                              
00007ab5  malloc                                                                    
10018949  mbCmdAckIsr                                                               
1001895d  mbCpe0Isr                                                                 
10018985  mbCpe1Isr                                                                 
100189e5  mbHwIsr                                                                   
00007fb9  memcmp                                                                    
00004d69  memcpy                                                                    
000054f9  memset                                                                    
20001594  n                                                                         
000082f1  openTRNG                                                                  
00007521  osal_snv_read                                                             
00007555  osal_snv_write                                                            
20004f60  outPointX                                                                 
20004f64  outPointY                                                                 
20001598  p                                                                         
20004ffc  pSspAesEncrypt_Sw                                                         
20002808  parmbuf                                                                   
0000a9b8  periConnParamUUID                                                         
0000a9b4  periPrivacyFlagUUID                                                       
200019b8  pfnBMAlloc                                                                
200019bc  pfnBMFree                                                                 
0000a998  primaryServiceUUID                                                        
20000864  przTask                                                                   
200008b4  przTaskStack                                                              
0000421d  putc                                                                      
00008999  putchar                                                                   
20004fac  ratChanInfo                                                               
0000a9b6  reconnectAddrUUID                                                         
00007e61  remove                                                                    
0000a9c0  reportRefUUID                                                             
0000a854  resourceDB                                                                
0000a8a0  rfDriverTable                                                             
20001734  rfRegTbl                                                                  
0000a968  scifDriverSetup                                                           
00006a2d  scifInitIo                                                                
00008ab5  scifOsalDisableTaskAlertInt                                               
00008abb  scifOsalEnableTaskAlertInt                                                
1001c149  scifOsalEnterCriticalSection                                              
00007105  scifOsalInit                                                              
1001c219  scifOsalLeaveCriticalSection                                              
00008591  scifReinitIo                                                              
000085a9  scifUninitIo                                                              
0000a9a2  secondaryServiceUUID                                                      
0000a9aa  servCharCfgUUID                                                           
0000a9ba  serviceChangedUUID                                                        
000044bd  setvbuf                                                                   
10016d29  sspAesDecrypt_Sw                                                          
10016af5  sspAesEncryptBasic_Sw                                                     
10016a99  sspAesEncryptKeyExp_Sw                                                    
10016979  sspAesEncrypt_Sw                                                          
10016985  sspKeyExpansion_Sw                                                        
10016975  ssp_KeyInit_Sw                                                            
0000867b  strchr                                                                    
000085c1  strcmp                                                                    
00008733  strcpy                                                                    
000086f9  strlen                                                                    
000075f1  strncpy                                                                   
200001a4  ti_sysbios_BIOS_Module__state__V                                          
1001bc29  ti_sysbios_BIOS_RtsGateProxy_Handle__label__S                             
1001bc29  ti_sysbios_BIOS_RtsGateProxy_Handle__label__S__mangled__                  
1001bab9  ti_sysbios_BIOS_RtsGateProxy_Object__delete__S                            
1001bab9  ti_sysbios_BIOS_RtsGateProxy_Object__delete__S__mangled__                 
1001c179  ti_sysbios_BIOS_RtsGateProxy_Params__init__S                              
1001c179  ti_sysbios_BIOS_RtsGateProxy_Params__init__S__mangled__                   
1001c249  ti_sysbios_BIOS_RtsGateProxy_enter__E                                     
1001c24d  ti_sysbios_BIOS_RtsGateProxy_leave__E                                     
1001c275  ti_sysbios_BIOS_RtsGateProxy_query__E                                     
1001c275  ti_sysbios_BIOS_RtsGateProxy_query__E__mangled__                          
00007999  ti_sysbios_BIOS_atExitFunc__I                                             
00008691  ti_sysbios_BIOS_exitFunc__I                                               
1001c035  ti_sysbios_BIOS_exit__E                                                   
1001bff9  ti_sysbios_BIOS_getCpuFreq__E                                             
000089a5  ti_sysbios_BIOS_getThreadType__E                                          
00007f4b  ti_sysbios_BIOS_linkedWithIncorrectBootLibrary__E                         
000083af  ti_sysbios_BIOS_nullFunc__I                                               
00008001  ti_sysbios_BIOS_registerRTSLock__I                                        
00008025  ti_sysbios_BIOS_removeRTSLock__I                                          
0000816d  ti_sysbios_BIOS_rtsLock__I                                                
000085f1  ti_sysbios_BIOS_rtsUnlock__I                                              
1001c045  ti_sysbios_BIOS_setThreadType__E                                          
000079c9  ti_sysbios_BIOS_startFunc__I                                              
1001c055  ti_sysbios_BIOS_start__E                                                  
00003a39  ti_sysbios_family_arm_cc26xx_Boot_trimDevice                              
00000502  ti_sysbios_family_arm_cc26xx_Timer_Module__id__C                          
1001bb49  ti_sysbios_family_arm_cc26xx_Timer_Module__startupDone__S                 
200001e4  ti_sysbios_family_arm_cc26xx_Timer_Module__state__V                       
1001ba71  ti_sysbios_family_arm_cc26xx_Timer_Module_startup__E                      
200017d0  ti_sysbios_family_arm_cc26xx_Timer_Object__table__V                       
0000818d  ti_sysbios_family_arm_cc26xx_Timer_dynamicStub__E                         
00008adf  ti_sysbios_family_arm_cc26xx_Timer_getCount64__E                          
0000713d  ti_sysbios_family_arm_cc26xx_Timer_getCurrentTick__E                      
1001c251  ti_sysbios_family_arm_cc26xx_Timer_getExpiredTicks__E                     
00008049  ti_sysbios_family_arm_cc26xx_Timer_getMaxTicks__E                         
1001c255  ti_sysbios_family_arm_cc26xx_Timer_getPeriod__E                           
00007625  ti_sysbios_family_arm_cc26xx_Timer_initDevice__I                          
1001a469  ti_sysbios_family_arm_cc26xx_Timer_periodicStub__E                        
1001b769  ti_sysbios_family_arm_cc26xx_Timer_postInit__I                            
00007787  ti_sysbios_family_arm_cc26xx_Timer_setNextTick__E                         
1001c259  ti_sysbios_family_arm_cc26xx_Timer_setPeriod__E                           
000079f9  ti_sysbios_family_arm_cc26xx_Timer_setThreshold__I                        
0000589d  ti_sysbios_family_arm_cc26xx_Timer_start__E                               
00000484  ti_sysbios_family_arm_cc26xx_Timer_startupNeeded__C                       
1001b795  ti_sysbios_family_arm_cc26xx_Timer_startup__E                             
200001ec  ti_sysbios_family_arm_cc26xx_TimestampProvider_Module__state__V           
1001bb69  ti_sysbios_family_arm_cc26xx_TimestampProvider_Module_startup__E          
000088cb  ti_sysbios_family_arm_cc26xx_TimestampProvider_get32__E                   
1001b9d1  ti_sysbios_family_arm_cc26xx_TimestampProvider_get64__E                   
1001c12f  ti_sysbios_family_arm_cc26xx_TimestampProvider_getFreq__E                 
00000504  ti_sysbios_family_arm_cc26xx_TimestampProvider_useClockTimer__C           
00000488  ti_sysbios_family_arm_m3_Hwi_E_alreadyDefined__C                          
0000048c  ti_sysbios_family_arm_m3_Hwi_E_hwiLimitExceeded__C                        
1001aed1  ti_sysbios_family_arm_m3_Hwi_Instance_finalize__E                         
1001a3c9  ti_sysbios_family_arm_m3_Hwi_Instance_init__E                             
20001a56  ti_sysbios_family_arm_m3_Hwi_Module_State_0_excActive__A                  
20001a48  ti_sysbios_family_arm_m3_Hwi_Module_State_0_excContext__A                 
20001a4c  ti_sysbios_family_arm_m3_Hwi_Module_State_0_excStack__A                   
00000506  ti_sysbios_family_arm_m3_Hwi_Module__id__C                                
200019dc  ti_sysbios_family_arm_m3_Hwi_Module__root__V                              
1001bb89  ti_sysbios_family_arm_m3_Hwi_Module__startupDone__S                       
20000144  ti_sysbios_family_arm_m3_Hwi_Module__state__V                             
1001b1c1  ti_sysbios_family_arm_m3_Hwi_Module_startup__E                            
00000490  ti_sysbios_family_arm_m3_Hwi_NUM_INTERRUPTS__C                            
000002d0  ti_sysbios_family_arm_m3_Hwi_Object__DESC__C                              
00000170  ti_sysbios_family_arm_m3_Hwi_Object__PARAMS__C                            
00000494  ti_sysbios_family_arm_m3_Hwi_Object__count__C                             
1001aab1  ti_sysbios_family_arm_m3_Hwi_Object__create__S                            
1001bba9  ti_sysbios_family_arm_m3_Hwi_Object__delete__S                            
1001be69  ti_sysbios_family_arm_m3_Hwi_Object__destruct__S                          
1001b7c1  ti_sysbios_family_arm_m3_Hwi_Object__get__S                               
00000498  ti_sysbios_family_arm_m3_Hwi_Object__table__C                             
20001968  ti_sysbios_family_arm_m3_Hwi_Object__table__V                             
1001c13d  ti_sysbios_family_arm_m3_Hwi_Params__init__S                              
0000049c  ti_sysbios_family_arm_m3_Hwi_ccr__C                                       
00008329  ti_sysbios_family_arm_m3_Hwi_clearInterrupt__E                            
1001af29  ti_sysbios_family_arm_m3_Hwi_construct                                    
1001ab15  ti_sysbios_family_arm_m3_Hwi_create                                       
1001c25d  ti_sysbios_family_arm_m3_Hwi_delete                                       
1001c261  ti_sysbios_family_arm_m3_Hwi_destruct                                     
1001c149  ti_sysbios_family_arm_m3_Hwi_disableFxn__E                                
1001b299  ti_sysbios_family_arm_m3_Hwi_disableInterrupt__E                          
1001aa49  ti_sysbios_family_arm_m3_Hwi_dispatchC__I                                 
20002500  ti_sysbios_family_arm_m3_Hwi_dispatchTable                                
1001c89d  ti_sysbios_family_arm_m3_Hwi_dispatch__I                                  
1001c1fb  ti_sysbios_family_arm_m3_Hwi_doSwiRestore__I                              
1001c213  ti_sysbios_family_arm_m3_Hwi_doTaskRestore__I                             
1001c155  ti_sysbios_family_arm_m3_Hwi_enableFxn__E                                 
1001b2dd  ti_sysbios_family_arm_m3_Hwi_enableInterrupt__E                           
1001ca01  ti_sysbios_family_arm_m3_Hwi_excHandlerAsm__I                             
000004a0  ti_sysbios_family_arm_m3_Hwi_excHandlerFunc__C                            
1001bbc9  ti_sysbios_family_arm_m3_Hwi_excHandler__I                                
1001b465  ti_sysbios_family_arm_m3_Hwi_getStackInfo__E                              
1001a699  ti_sysbios_family_arm_m3_Hwi_initNVIC__E                                  
1001c9b9  ti_sysbios_family_arm_m3_Hwi_initStacks__E                                
000004a4  ti_sysbios_family_arm_m3_Hwi_nullIsrFunc__C                               
000004a8  ti_sysbios_family_arm_m3_Hwi_numSparseInterrupts__C                       
e000e000  ti_sysbios_family_arm_m3_Hwi_nvic                                         
1001ca3f  ti_sysbios_family_arm_m3_Hwi_pendSV__I                                    
1001c065  ti_sysbios_family_arm_m3_Hwi_plug__E                                      
1001a319  ti_sysbios_family_arm_m3_Hwi_postInit__I                                  
000087d9  ti_sysbios_family_arm_m3_Hwi_post__E                                      
000004ac  ti_sysbios_family_arm_m3_Hwi_priGroup__C                                  
20000000  ti_sysbios_family_arm_m3_Hwi_ramVectors                                   
00000000  ti_sysbios_family_arm_m3_Hwi_resetVectors                                 
1001c219  ti_sysbios_family_arm_m3_Hwi_restoreFxn__E                                
1001ca57  ti_sysbios_family_arm_m3_Hwi_return                                       
00008ac1  ti_sysbios_family_arm_m3_Hwi_setFunc__E                                   
1001be85  ti_sysbios_family_arm_m3_Hwi_setPriority__E                               
1001c203  ti_sysbios_family_arm_m3_Hwi_startup__E                                   
1001c00d  ti_sysbios_family_arm_m3_Hwi_switchFromBootStack__E                       
1001c265  ti_sysbios_family_arm_m3_TaskSupport_Module__startupDone__S               
1001c96d  ti_sysbios_family_arm_m3_TaskSupport_buildTaskStack                       
1001c161  ti_sysbios_family_arm_m3_TaskSupport_getStackAlignment__E                 
1001ca59  ti_sysbios_family_arm_m3_TaskSupport_glue                                 
000004b0  ti_sysbios_family_arm_m3_TaskSupport_stackAlignment__C                    
1001b49d  ti_sysbios_family_arm_m3_TaskSupport_start__E                             
1001ca69  ti_sysbios_family_arm_m3_TaskSupport_swap__E                              
1001ca21  ti_sysbios_family_xxx_Hwi_switchAndRunFunc                                
1001bbe9  ti_sysbios_gates_GateHwi_Handle__label__S                                 
1001b463  ti_sysbios_gates_GateHwi_Instance_init__E                                 
0000021c  ti_sysbios_gates_GateHwi_Module__FXNS__C                                  
00000508  ti_sysbios_gates_GateHwi_Module__id__C                                    
200019e4  ti_sysbios_gates_GateHwi_Module__root__V                                  
000002f0  ti_sysbios_gates_GateHwi_Object__DESC__C                                  
00000430  ti_sysbios_gates_GateHwi_Object__PARAMS__C                                
1001ba95  ti_sysbios_gates_GateHwi_Object__create__S                                
1001bc09  ti_sysbios_gates_GateHwi_Object__delete__S                                
1001c16d  ti_sysbios_gates_GateHwi_enter__E                                         
1001c21f  ti_sysbios_gates_GateHwi_leave__E                                         
1001c269  ti_sysbios_gates_GateHwi_query__E                                         
1001bc29  ti_sysbios_gates_GateMutex_Handle__label__S                               
000005cc  ti_sysbios_gates_GateMutex_Instance_State_sem__O                          
1001c075  ti_sysbios_gates_GateMutex_Instance_finalize__E                           
1001bea1  ti_sysbios_gates_GateMutex_Instance_init__E                               
00000240  ti_sysbios_gates_GateMutex_Module__FXNS__C                                
0000050a  ti_sysbios_gates_GateMutex_Module__id__C                                  
200019ec  ti_sysbios_gates_GateMutex_Module__root__V                                
00000310  ti_sysbios_gates_GateMutex_Object__DESC__C                                
00000448  ti_sysbios_gates_GateMutex_Object__PARAMS__C                              
1001b649  ti_sysbios_gates_GateMutex_Object__create__S                              
1001bab9  ti_sysbios_gates_GateMutex_Object__delete__S                              
1001bc49  ti_sysbios_gates_GateMutex_Object__destruct__S                            
20001850  ti_sysbios_gates_GateMutex_Object__table__V                               
1001c179  ti_sysbios_gates_GateMutex_Params__init__S                                
1001b7ed  ti_sysbios_gates_GateMutex_construct                                      
1001b679  ti_sysbios_gates_GateMutex_create                                         
1001c26d  ti_sysbios_gates_GateMutex_delete                                         
1001c271  ti_sysbios_gates_GateMutex_destruct                                       
1001b6a9  ti_sysbios_gates_GateMutex_enter__E                                       
1001bf9d  ti_sysbios_gates_GateMutex_leave__E                                       
1001c275  ti_sysbios_gates_GateMutex_query__E                                       
1001c279  ti_sysbios_hal_Hwi_HwiProxy_Module__startupDone__S                        
1001bb89  ti_sysbios_hal_Hwi_HwiProxy_Module__startupDone__S__mangled__             
1001c085  ti_sysbios_hal_Hwi_HwiProxy_Object__create__S                             
1001bba9  ti_sysbios_hal_Hwi_HwiProxy_Object__delete__S                             
1001bba9  ti_sysbios_hal_Hwi_HwiProxy_Object__delete__S__mangled__                  
1001c13d  ti_sysbios_hal_Hwi_HwiProxy_Params__init__S                               
1001c13d  ti_sysbios_hal_Hwi_HwiProxy_Params__init__S__mangled__                    
00008329  ti_sysbios_hal_Hwi_HwiProxy_clearInterrupt__E                             
1001be49  ti_sysbios_hal_Hwi_HwiProxy_create                                        
1001c27d  ti_sysbios_hal_Hwi_HwiProxy_delete                                        
1001c281  ti_sysbios_hal_Hwi_HwiProxy_disableInterrupt__E                           
1001b299  ti_sysbios_hal_Hwi_HwiProxy_disableInterrupt__E__mangled__                
1001c285  ti_sysbios_hal_Hwi_HwiProxy_enableInterrupt__E                            
1001b2dd  ti_sysbios_hal_Hwi_HwiProxy_enableInterrupt__E__mangled__                 
1001c289  ti_sysbios_hal_Hwi_HwiProxy_getStackInfo__E                               
1001b465  ti_sysbios_hal_Hwi_HwiProxy_getStackInfo__E__mangled__                    
000087d9  ti_sysbios_hal_Hwi_HwiProxy_post__E                                       
1001c28d  ti_sysbios_hal_Hwi_HwiProxy_startup__E                                    
1001c203  ti_sysbios_hal_Hwi_HwiProxy_startup__E__mangled__                         
1001c291  ti_sysbios_hal_Hwi_HwiProxy_switchFromBootStack__E                        
1001c00d  ti_sysbios_hal_Hwi_HwiProxy_switchFromBootStack__E__mangled__             
1001c1f1  ti_sysbios_hal_Hwi_Instance_finalize__E                                   
1001b9f9  ti_sysbios_hal_Hwi_Instance_init__E                                       
200019f4  ti_sysbios_hal_Hwi_Module__root__V                                        
1001c021  ti_sysbios_hal_Hwi_Module_startup__E                                      
00000330  ti_sysbios_hal_Hwi_Object__DESC__C                                        
000001a0  ti_sysbios_hal_Hwi_Object__PARAMS__C                                      
1001bc69  ti_sysbios_hal_Hwi_Object__delete__S                                      
000089b1  ti_sysbios_hal_Hwi_Params__init__S                                        
00008329  ti_sysbios_hal_Hwi_clearInterrupt__E                                      
1001ab79  ti_sysbios_hal_Hwi_create                                                 
1001c295  ti_sysbios_hal_Hwi_delete                                                 
1001c281  ti_sysbios_hal_Hwi_disableInterrupt__E                                    
1001c281  ti_sysbios_hal_Hwi_disableInterrupt__E                                    
1001c285  ti_sysbios_hal_Hwi_enableInterrupt__E                                     
1001c285  ti_sysbios_hal_Hwi_enableInterrupt__E                                     
1001c289  ti_sysbios_hal_Hwi_getStackInfo__E                                        
1001c289  ti_sysbios_hal_Hwi_getStackInfo__E                                        
1001b819  ti_sysbios_hal_Hwi_initStack                                              
000087d9  ti_sysbios_hal_Hwi_post__E                                                
1001c28d  ti_sysbios_hal_Hwi_startup__E                                             
1001c28d  ti_sysbios_hal_Hwi_startup__E                                             
1001c299  ti_sysbios_hal_Hwi_switchFromBootStack__E                                 
1001c299  ti_sysbios_hal_Hwi_switchFromBootStack__E                                 
000004b4  ti_sysbios_heaps_HeapMem_E_memory__C                                      
1001bc89  ti_sysbios_heaps_HeapMem_Handle__label__S                                 
20001a60  ti_sysbios_heaps_HeapMem_Instance_State_0_buf__A                          
1001b4d5  ti_sysbios_heaps_HeapMem_Instance_init__E                                 
1001bc29  ti_sysbios_heaps_HeapMem_Module_GateProxy_Handle__label__S                
1001bc29  ti_sysbios_heaps_HeapMem_Module_GateProxy_Handle__label__S__mangled__     
1001bab9  ti_sysbios_heaps_HeapMem_Module_GateProxy_Object__delete__S               
1001bab9  ti_sysbios_heaps_HeapMem_Module_GateProxy_Object__delete__S__mangled__    
1001c179  ti_sysbios_heaps_HeapMem_Module_GateProxy_Params__init__S                 
1001c179  ti_sysbios_heaps_HeapMem_Module_GateProxy_Params__init__S__mangled__      
1001c29d  ti_sysbios_heaps_HeapMem_Module_GateProxy_enter__E                        
1001c2a1  ti_sysbios_heaps_HeapMem_Module_GateProxy_leave__E                        
1001c275  ti_sysbios_heaps_HeapMem_Module_GateProxy_query__E                        
1001c275  ti_sysbios_heaps_HeapMem_Module_GateProxy_query__E__mangled__             
000001cc  ti_sysbios_heaps_HeapMem_Module__FXNS__C                                  
000004b8  ti_sysbios_heaps_HeapMem_Module__gateObj__C                               
0000050c  ti_sysbios_heaps_HeapMem_Module__id__C                                    
200019fc  ti_sysbios_heaps_HeapMem_Module__root__V                                  
00000350  ti_sysbios_heaps_HeapMem_Object__DESC__C                                  
00000264  ti_sysbios_heaps_HeapMem_Object__PARAMS__C                                
000004bc  ti_sysbios_heaps_HeapMem_Object__count__C                                 
1001b845  ti_sysbios_heaps_HeapMem_Object__create__S                                
1001bca9  ti_sysbios_heaps_HeapMem_Object__delete__S                                
1001b871  ti_sysbios_heaps_HeapMem_Object__get__S                                   
000004c0  ti_sysbios_heaps_HeapMem_Object__table__C                                 
20001980  ti_sysbios_heaps_HeapMem_Object__table__V                                 
1001a199  ti_sysbios_heaps_HeapMem_alloc__E                                         
1001a795  ti_sysbios_heaps_HeapMem_free__E                                          
1001b209  ti_sysbios_heaps_HeapMem_getStats__E                                      
1001b545  ti_sysbios_heaps_HeapMem_init__I                                          
1001c2a5  ti_sysbios_heaps_HeapMem_isBlocking__E                                    
000004c4  ti_sysbios_heaps_HeapMem_reqAlign__C                                      
1001c105  ti_sysbios_heaps_HeapMem_restore__E                                       
1001bfcd  ti_sysbios_knl_Clock_Instance_finalize__E                                 
1001b50d  ti_sysbios_knl_Clock_Instance_init__E                                     
000005d0  ti_sysbios_knl_Clock_Module_State_clockQ__O                               
20001a04  ti_sysbios_knl_Clock_Module__root__V                                      
20000178  ti_sysbios_knl_Clock_Module__state__V                                     
1001bcc9  ti_sysbios_knl_Clock_Module_startup__E                                    
00000370  ti_sysbios_knl_Clock_Object__DESC__C                                      
00000288  ti_sysbios_knl_Clock_Object__PARAMS__C                                    
1001badd  ti_sysbios_knl_Clock_Object__delete__S                                    
1001bce9  ti_sysbios_knl_Clock_Object__destruct__S                                  
20001948  ti_sysbios_knl_Clock_Object__table__V                                     
1001c185  ti_sysbios_knl_Clock_Params__init__S                                      
1001c2a9  ti_sysbios_knl_Clock_TimerProxy_Module__startupDone__S                    
1001bb49  ti_sysbios_knl_Clock_TimerProxy_Module__startupDone__S__mangled__         
1001c095  ti_sysbios_knl_Clock_TimerProxy_getCurrentTick__E                         
1001c2ad  ti_sysbios_knl_Clock_TimerProxy_getExpiredTicks__E                        
1001c0a5  ti_sysbios_knl_Clock_TimerProxy_getMaxTicks__E                            
1001c2b1  ti_sysbios_knl_Clock_TimerProxy_getPeriod__E                              
1001c0b5  ti_sysbios_knl_Clock_TimerProxy_setNextTick__E                            
1001b795  ti_sysbios_knl_Clock_TimerProxy_startup__E                                
1001b795  ti_sysbios_knl_Clock_TimerProxy_startup__E__mangled__                     
1001ba21  ti_sysbios_knl_Clock_addI__E                                              
1001b579  ti_sysbios_knl_Clock_construct                                            
1001b3ed  ti_sysbios_knl_Clock_create                                               
1001c2b5  ti_sysbios_knl_Clock_delete                                               
1001c2b9  ti_sysbios_knl_Clock_destruct                                             
0000870d  ti_sysbios_knl_Clock_doTick__I                                            
00007c9d  ti_sysbios_knl_Clock_getTicksUntilInterrupt__E                            
1001b6d9  ti_sysbios_knl_Clock_getTicks__E                                          
1001c191  ti_sysbios_knl_Clock_getTimerHandle__E                                    
00008ae3  ti_sysbios_knl_Clock_isActive__E                                          
1001be67  ti_sysbios_knl_Clock_logTick__E                                           
1001c2bd  ti_sysbios_knl_Clock_removeI__E                                           
1001bebd  ti_sysbios_knl_Clock_scheduleNextTick__E                                  
000004c8  ti_sysbios_knl_Clock_serviceMargin__C                                     
1001c2c1  ti_sysbios_knl_Clock_setTimeout__E                                        
1001a719  ti_sysbios_knl_Clock_startI__E                                            
1001bfe3  ti_sysbios_knl_Clock_start__E                                             
000081ad  ti_sysbios_knl_Clock_stop__E                                              
00000510  ti_sysbios_knl_Clock_tickMode__C                                          
0000ab90  ti_sysbios_knl_Clock_tickPeriod__C                                        
0000ab94  ti_sysbios_knl_Clock_triggerClock__C                                      
00008aeb  ti_sysbios_knl_Clock_triggerFunc__I                                       
1001a80d  ti_sysbios_knl_Clock_walkQueueDynamic__E                                  
00004e05  ti_sysbios_knl_Clock_workFuncDynamic__E                                   
1001a885  ti_sysbios_knl_Clock_workFunc__E                                          
0000ab74  ti_sysbios_knl_Idle_funcList__A                                           
00000478  ti_sysbios_knl_Idle_funcList__C                                           
1001c20b  ti_sysbios_knl_Idle_loop__E                                               
1001bd09  ti_sysbios_knl_Idle_run__E                                                
000005d4  ti_sysbios_knl_Mailbox_Instance_State_dataQue__O                          
000005d8  ti_sysbios_knl_Mailbox_Instance_State_dataSem__O                          
000005dc  ti_sysbios_knl_Mailbox_Instance_State_freeQue__O                          
000005e0  ti_sysbios_knl_Mailbox_Instance_State_freeSem__O                          
1001a9dd  ti_sysbios_knl_Mailbox_Instance_finalize__E                               
1001a001  ti_sysbios_knl_Mailbox_Instance_init__E                                   
20001a0c  ti_sysbios_knl_Mailbox_Module__root__V                                    
1001b251  ti_sysbios_knl_Mailbox_Module_startup__E                                  
00000390  ti_sysbios_knl_Mailbox_Object__DESC__C                                    
0000013c  ti_sysbios_knl_Mailbox_Object__PARAMS__C                                  
000004cc  ti_sysbios_knl_Mailbox_Object__count__C                                   
1001bd29  ti_sysbios_knl_Mailbox_Object__delete__S                                  
1001bed9  ti_sysbios_knl_Mailbox_Object__destruct__S                                
1001b89d  ti_sysbios_knl_Mailbox_Object__get__S                                     
000004d0  ti_sysbios_knl_Mailbox_Object__table__C                                   
1001c19d  ti_sysbios_knl_Mailbox_Params__init__S                                    
1001af81  ti_sysbios_knl_Mailbox_construct                                          
1001abdd  ti_sysbios_knl_Mailbox_create                                             
1001c2c5  ti_sysbios_knl_Mailbox_delete                                             
1001c2c9  ti_sysbios_knl_Mailbox_destruct                                           
1001a8fd  ti_sysbios_knl_Mailbox_pend__E                                            
1001b8c9  ti_sysbios_knl_Mailbox_postInit__I                                        
1001a591  ti_sysbios_knl_Mailbox_post__E                                            
1001c22b  ti_sysbios_knl_Queue_Instance_init__E                                     
20001a14  ti_sysbios_knl_Queue_Module__root__V                                      
000003b0  ti_sysbios_knl_Queue_Object__DESC__C                                      
00000460  ti_sysbios_knl_Queue_Object__PARAMS__C                                    
000004d4  ti_sysbios_knl_Queue_Object__count__C                                     
1001bd49  ti_sysbios_knl_Queue_Object__delete__S                                    
1001bef5  ti_sysbios_knl_Queue_Object__destruct__S                                  
1001bd69  ti_sysbios_knl_Queue_Object__get__S                                       
000004d8  ti_sysbios_knl_Queue_Object__table__C                                     
1001b8f5  ti_sysbios_knl_Queue_construct                                            
1001b921  ti_sysbios_knl_Queue_create                                               
1001c2cd  ti_sysbios_knl_Queue_delete                                               
1001c1a9  ti_sysbios_knl_Queue_dequeue__E                                           
1001c2d1  ti_sysbios_knl_Queue_destruct                                             
1001c231  ti_sysbios_knl_Queue_elemClear__E                                         
1001c113  ti_sysbios_knl_Queue_empty__E                                             
1001c1b5  ti_sysbios_knl_Queue_enqueue__E                                           
1001bf11  ti_sysbios_knl_Queue_get__E                                               
1001c2d5  ti_sysbios_knl_Queue_head__E                                              
1001c2d9  ti_sysbios_knl_Queue_next__E                                              
1001bf2d  ti_sysbios_knl_Queue_put__E                                               
1001c121  ti_sysbios_knl_Queue_remove__E                                            
000005e4  ti_sysbios_knl_Semaphore_Instance_State_pendQ__O                          
1001c0c5  ti_sysbios_knl_Semaphore_Instance_finalize__E                             
1001bb01  ti_sysbios_knl_Semaphore_Instance_init__E                                 
20001a1c  ti_sysbios_knl_Semaphore_Module__root__V                                  
000003d0  ti_sysbios_knl_Semaphore_Object__DESC__C                                  
000002ac  ti_sysbios_knl_Semaphore_Object__PARAMS__C                                
1001bb25  ti_sysbios_knl_Semaphore_Object__delete__S                                
1001bd89  ti_sysbios_knl_Semaphore_Object__destruct__S                              
1001c1c1  ti_sysbios_knl_Semaphore_Params__init__S                                  
1001b709  ti_sysbios_knl_Semaphore_construct                                        
1001b5ad  ti_sysbios_knl_Semaphore_create                                           
1001c2dd  ti_sysbios_knl_Semaphore_delete                                           
1001c2e1  ti_sysbios_knl_Semaphore_destruct                                         
1001b94d  ti_sysbios_knl_Semaphore_pendTimeout__I                                   
1001a0cd  ti_sysbios_knl_Semaphore_pend__E                                          
1001ac41  ti_sysbios_knl_Semaphore_post__E                                          
1001bf9b  ti_sysbios_knl_Swi_Instance_finalize__E                                   
1001aca5  ti_sysbios_knl_Swi_Instance_init__E                                       
20001888  ti_sysbios_knl_Swi_Module_State_0_readyQ__A                               
20001a24  ti_sysbios_knl_Swi_Module__root__V                                        
200001c8  ti_sysbios_knl_Swi_Module__state__V                                       
1001c237  ti_sysbios_knl_Swi_Module_startup__E                                      
000003f0  ti_sysbios_knl_Swi_Object__DESC__C                                        
000001f4  ti_sysbios_knl_Swi_Object__PARAMS__C                                      
000004dc  ti_sysbios_knl_Swi_Object__count__C                                       
1001bda9  ti_sysbios_knl_Swi_Object__delete__S                                      
1001bf49  ti_sysbios_knl_Swi_Object__destruct__S                                    
1001b979  ti_sysbios_knl_Swi_Object__get__S                                         
000004e0  ti_sysbios_knl_Swi_Object__table__C                                       
200018b8  ti_sysbios_knl_Swi_Object__table__V                                       
1001c1cd  ti_sysbios_knl_Swi_Params__init__S                                        
1001b085  ti_sysbios_knl_Swi_construct                                              
1001ad05  ti_sysbios_knl_Swi_create                                                 
1001c2e5  ti_sysbios_knl_Swi_delete                                                 
1001c2e9  ti_sysbios_knl_Swi_destruct                                               
1001c0d5  ti_sysbios_knl_Swi_disable__E                                             
1001c0e5  ti_sysbios_knl_Swi_enabled__E                                             
000089bd  ti_sysbios_knl_Swi_getTrigger__E                                          
000004e4  ti_sysbios_knl_Swi_numPriorities__C                                       
00008609  ti_sysbios_knl_Swi_or__E                                                  
1001c2ed  ti_sysbios_knl_Swi_postInit__I                                            
1001b321  ti_sysbios_knl_Swi_post__E                                                
1001ad61  ti_sysbios_knl_Swi_restoreHwi__E                                          
1001b5e1  ti_sysbios_knl_Swi_restore__E                                             
1001b0d5  ti_sysbios_knl_Swi_runLoop__I                                             
1001afd9  ti_sysbios_knl_Swi_run__I                                                 
1001b031  ti_sysbios_knl_Swi_schedule__I                                            
1001c23d  ti_sysbios_knl_Swi_startup__E                                             
200020e0  ti_sysbios_knl_Task_Instance_State_0_stack__A                             
1001a4fd  ti_sysbios_knl_Task_Instance_finalize__E                                  
1001a25d  ti_sysbios_knl_Task_Instance_init__E                                      
20001a50  ti_sysbios_knl_Task_Module_State_0_idleTask__A                            
200018e8  ti_sysbios_knl_Task_Module_State_0_readyQ__A                              
000005e8  ti_sysbios_knl_Task_Module_State_inactiveQ__O                             
20001a2c  ti_sysbios_knl_Task_Module__root__V                                       
20000100  ti_sysbios_knl_Task_Module__state__V                                      
1001adbd  ti_sysbios_knl_Task_Module_startup__E                                     
00000410  ti_sysbios_knl_Task_Object__DESC__C                                       
00000100  ti_sysbios_knl_Task_Object__PARAMS__C                                     
000004e8  ti_sysbios_knl_Task_Object__count__C                                      
1001bdc9  ti_sysbios_knl_Task_Object__delete__S                                     
1001bf65  ti_sysbios_knl_Task_Object__destruct__S                                   
1001bde9  ti_sysbios_knl_Task_Object__get__S                                        
000004ec  ti_sysbios_knl_Task_Object__table__C                                      
20001784  ti_sysbios_knl_Task_Object__table__V                                      
1001c1d9  ti_sysbios_knl_Task_Params__init__S                                       
1001c2f1  ti_sysbios_knl_Task_SupportProxy_Module__startupDone__S                   
1001c265  ti_sysbios_knl_Task_SupportProxy_Module__startupDone__S__mangled__        
1001c2f5  ti_sysbios_knl_Task_SupportProxy_getStackAlignment__E                     
1001c161  ti_sysbios_knl_Task_SupportProxy_getStackAlignment__E__mangled__          
1001c2f9  ti_sysbios_knl_Task_SupportProxy_start__E                                 
1001b49d  ti_sysbios_knl_Task_SupportProxy_start__E__mangled__                      
1001c2fd  ti_sysbios_knl_Task_SupportProxy_swap__E                                  
1001ca69  ti_sysbios_knl_Task_SupportProxy_swap__E__mangled__                       
000004f0  ti_sysbios_knl_Task_allBlockedFunc__C                                     
1001b365  ti_sysbios_knl_Task_allBlockedFunction__I                                 
1001b615  ti_sysbios_knl_Task_blockI__E                                             
1001b125  ti_sysbios_knl_Task_construct                                             
1001ae19  ti_sysbios_knl_Task_create                                                
000004f4  ti_sysbios_knl_Task_defaultStackHeap__C                                   
000004f8  ti_sysbios_knl_Task_defaultStackSize__C                                   
1001c301  ti_sysbios_knl_Task_delete                                                
1001c305  ti_sysbios_knl_Task_destruct                                              
1001c0f5  ti_sysbios_knl_Task_disable__E                                            
1001c243  ti_sysbios_knl_Task_enable__E                                             
1001be09  ti_sysbios_knl_Task_enter__I                                              
1001b429  ti_sysbios_knl_Task_exit__E                                               
0000050e  ti_sysbios_knl_Task_initStackFlag__C                                      
000004fc  ti_sysbios_knl_Task_numConstructedTasks__C                                
1001a615  ti_sysbios_knl_Task_postInit__I                                           
1001b739  ti_sysbios_knl_Task_processVitalTaskFlag__I                               
1001be29  ti_sysbios_knl_Task_restoreHwi__E                                         
1001ba49  ti_sysbios_knl_Task_restore__E                                            
1001b175  ti_sysbios_knl_Task_schedule__I                                           
1001c1e5  ti_sysbios_knl_Task_self__E                                               
1001bf81  ti_sysbios_knl_Task_sleepTimeout__I                                       
1001a96d  ti_sysbios_knl_Task_sleep__E                                              
1001ae75  ti_sysbios_knl_Task_startCore__E                                          
1001c309  ti_sysbios_knl_Task_startup__E                                            
1001ca71  ti_sysbios_knl_Task_swapReturn                                            
1001b9a5  ti_sysbios_knl_Task_unblockI__E                                           
1001bfb5  ti_sysbios_knl_Task_unblock__E                                            
1001b3a9  ti_sysbios_knl_Task_yield__E                                              
00000590  ti_sysbios_rom_ROM_AONRTCChannelEnable                                    
00000594  ti_sysbios_rom_ROM_AONRTCCompareValueSet                                  
00000598  ti_sysbios_rom_ROM_AONRTCCurrentCompareValueGet                           
0000059c  ti_sysbios_rom_ROM_AONRTCEventClear                                       
000005a0  ti_sysbios_rom_ROM_ti_sysbios_family_arm_cc26xx_Timer_getCount64__E       
000005a4  ti_sysbios_rom_ROM_ti_sysbios_family_arm_cc26xx_Timer_getCurrentTick__E   
000005a8  ti_sysbios_rom_ROM_ti_sysbios_family_arm_cc26xx_Timer_getMaxTicks__E      
000005ac  ti_sysbios_rom_ROM_ti_sysbios_family_arm_cc26xx_Timer_initDevice__I       
000005b0  ti_sysbios_rom_ROM_ti_sysbios_family_arm_cc26xx_Timer_setNextTick__E      
000005b4  ti_sysbios_rom_ROM_ti_sysbios_family_arm_cc26xx_Timer_setThreshold__I     
000005b8  ti_sysbios_rom_ROM_ti_sysbios_family_arm_cc26xx_Timer_start__E            
000005bc  ti_sysbios_rom_ROM_ti_sysbios_family_arm_cc26xx_TimestampProvider_get32__E
000005c0  ti_sysbios_rom_ROM_xdc_runtime_Startup_getState__I                        
000005c4  ti_sysbios_rom_ROM_xdc_runtime_System_SupportProxy_abort__E               
000005c8  ti_sysbios_rom_ROM_xdc_runtime_System_SupportProxy_exit__E                
00008aed  ti_sysbios_rom_cortexm_cc26xx_CC26xx_badRomRevision__E                    
00008621  ti_sysbios_rom_cortexm_cc26xx_CC26xx_checkRevision__E                     
1001ca9b  ti_sysbios_rom_cortexm_cc26xx_CC26xx_getRevision__E                       
200015b4  time_high                                                                 
200015be  time_low                                                                  
20001590  time_tot                                                                  
200007e4  transInterval                                                             
20002834  trngCC26XXObjects                                                         
0000ab3c  trngDriverTable                                                           
0000aa14  txPowerTable                                                              
0000ab7c  txPwrTbl                                                                  
200002c0  uartLog_evBuf                                                             
2000020a  uartLog_evBufIsEmpty                                                      
2000020c  uartLog_evtNum                                                            
00008aef  uartLog_flush                                                             
20000209  uartLog_head                                                              
20000214  uartLog_outBuf                                                            
000053f9  uartLog_outputFxn                                                         
20000208  uartLog_tail                                                              
00007e61  unlink                                                                    
20001918  user0Cfg                                                                  
000061ed  user_enqueueCharDataMsg                                                   
00006b41  user_enqueueRawAppMsg                                                     
0000a9bc  validRangeUUID                                                            
200015a0  voltageArray                                                              
00007e89  write                                                                     
00000524  xdc_runtime_Assert_E_assertFailed__C                                      
1001c5a9  xdc_runtime_Assert_raise__I                                               
1001c6ed  xdc_runtime_Core_assignLabel__I                                           
1001c5f1  xdc_runtime_Core_assignParams__I                                          
1001c639  xdc_runtime_Core_constructObject__I                                       
1001c405  xdc_runtime_Core_createObject__I                                          
1001c4f9  xdc_runtime_Core_deleteObject__I                                          
1001c7a1  xdc_runtime_Core_destructObject__I                                        
00000528  xdc_runtime_Error_E_memory__C                                             
1001c7b9  xdc_runtime_Error_check__E                                                
1001c841  xdc_runtime_Error_init__E                                                 
0000052c  xdc_runtime_Error_policyFxn__C                                            
1001c487  xdc_runtime_Error_policySpin__E                                           
0000058c  xdc_runtime_Error_policy__C                                               
1001c769  xdc_runtime_Error_raiseX__E                                               
1001c885  xdc_runtime_Gate_enterSystem__E                                           
1001c879  xdc_runtime_Gate_leaveSystem__E                                           
00000530  xdc_runtime_IGateProvider_Interface__BASE__C                              
00000534  xdc_runtime_IHeap_Interface__BASE__C                                      
0000ab98  xdc_runtime_ILogger_Interface__BASE__C                                    
00000538  xdc_runtime_IModule_Interface__BASE__C                                    
0000ab9c  xdc_runtime_Log_L_error__C                                                
0000aba0  xdc_runtime_Log_L_info__C                                                 
00008345  xdc_runtime_LoggerCallback_Instance_init__E                               
0000a934  xdc_runtime_LoggerCallback_Module__FXNS__C                                
20001a34  xdc_runtime_LoggerCallback_Module__root__V                                
00006d0d  xdc_runtime_LoggerCallback_Module_startup__E                              
0000aa3c  xdc_runtime_LoggerCallback_Object__DESC__C                                
0000aa78  xdc_runtime_LoggerCallback_Object__PARAMS__C                              
0000aba4  xdc_runtime_LoggerCallback_Object__count__C                               
00007a29  xdc_runtime_LoggerCallback_Object__create__S                              
000087e9  xdc_runtime_LoggerCallback_Object__get__S                                 
20001998  xdc_runtime_LoggerCallback_Object__table__V                               
0000aba8  xdc_runtime_LoggerCallback_createInstFxn__C                               
00008ae7  xdc_runtime_LoggerCallback_defaultCreate                                  
00008a1f  xdc_runtime_LoggerCallback_disable__E                                     
00008a29  xdc_runtime_LoggerCallback_enable__E                                      
0000abac  xdc_runtime_LoggerCallback_outputFxn__C                                   
00007eb1  xdc_runtime_LoggerCallback_write0__E                                      
00007ed9  xdc_runtime_LoggerCallback_write1__E                                      
00007cc9  xdc_runtime_LoggerCallback_write2__E                                      
00007659  xdc_runtime_LoggerCallback_write4__E                                      
00006b85  xdc_runtime_LoggerCallback_write8__E                                      
1001bbe9  xdc_runtime_Main_Module_GateProxy_Handle__label__S                        
1001bc09  xdc_runtime_Main_Module_GateProxy_Object__delete__S                       
1001c269  xdc_runtime_Main_Module_GateProxy_query__E                                
0000053c  xdc_runtime_Main_Module__diagsEnabled__C                                  
00000540  xdc_runtime_Main_Module__diagsIncluded__C                                 
00000544  xdc_runtime_Main_Module__diagsMask__C                                     
00000584  xdc_runtime_Main_Module__id__C                                            
0000abce  xdc_runtime_Main_Module__loggerDefined__C                                 
0000abb0  xdc_runtime_Main_Module__loggerFxn4__C                                    
0000abb4  xdc_runtime_Main_Module__loggerFxn8__C                                    
0000abb8  xdc_runtime_Main_Module__loggerObj__C                                     
1001bc89  xdc_runtime_Memory_HeapProxy_Handle__label__S                             
1001bc89  xdc_runtime_Memory_HeapProxy_Handle__label__S__mangled__                  
1001bca9  xdc_runtime_Memory_HeapProxy_Object__delete__S                            
1001bca9  xdc_runtime_Memory_HeapProxy_Object__delete__S__mangled__                 
1001c889  xdc_runtime_Memory_HeapProxy_alloc__E                                     
1001c88d  xdc_runtime_Memory_HeapProxy_free__E                                      
00000586  xdc_runtime_Memory_Module__id__C                                          
20000200  xdc_runtime_Memory_Module__state__V                                       
1001c489  xdc_runtime_Memory_alloc__E                                               
1001c84d  xdc_runtime_Memory_calloc__E                                              
00000548  xdc_runtime_Memory_defaultHeapInstance__C                                 
1001c801  xdc_runtime_Memory_free__E                                                
1001c859  xdc_runtime_Memory_getMaxDefaultTypeAlign__E                              
1001c785  xdc_runtime_Memory_valloc__E                                              
200001f0  xdc_runtime_Startup_Module__state__V                                      
00000001  xdc_runtime_Startup__EXECFXN__C                                           
00000001  xdc_runtime_Startup__RESETFXN__C                                          
0000054c  xdc_runtime_Startup_execImpl__C                                           
1001c559  xdc_runtime_Startup_exec__E                                               
00008757  xdc_runtime_Startup_exec__I                                               
0000ab48  xdc_runtime_Startup_firstFxns__A                                          
00000514  xdc_runtime_Startup_firstFxns__C                                          
00006089  xdc_runtime_Startup_getState__I                                           
0000051c  xdc_runtime_Startup_lastFxns__C                                           
00000550  xdc_runtime_Startup_maxPasses__C                                          
000089c9  xdc_runtime_Startup_reset__I                                              
000089d5  xdc_runtime_Startup_rtsDone__E                                            
0000aaa8  xdc_runtime_Startup_sfxnRts__A                                            
00000554  xdc_runtime_Startup_sfxnRts__C                                            
0000a9ec  xdc_runtime_Startup_sfxnTab__A                                            
00000558  xdc_runtime_Startup_sfxnTab__C                                            
0000055c  xdc_runtime_Startup_startModsFxn__C                                       
1001c30d  xdc_runtime_Startup_startMods__I                                          
00000560  xdc_runtime_SysCallback_abortFxn__C                                       
1001c811  xdc_runtime_SysCallback_abort__E                                          
00008af3  xdc_runtime_SysCallback_defaultAbort                                      
00008af5  xdc_runtime_SysCallback_defaultExit                                       
00000564  xdc_runtime_SysCallback_exitFxn__C                                        
1001c821  xdc_runtime_SysCallback_exit__E                                           
000081cd  xdc_runtime_SysStd_abort__E                                               
000089e1  xdc_runtime_SysStd_exit__E                                                
1001bbe9  xdc_runtime_System_Module_GateProxy_Handle__label__S                      
1001bbe9  xdc_runtime_System_Module_GateProxy_Handle__label__S__mangled__           
1001bc09  xdc_runtime_System_Module_GateProxy_Object__delete__S                     
1001bc09  xdc_runtime_System_Module_GateProxy_Object__delete__S__mangled__          
1001c891  xdc_runtime_System_Module_GateProxy_enter__E                              
1001c895  xdc_runtime_System_Module_GateProxy_leave__E                              
1001c269  xdc_runtime_System_Module_GateProxy_query__E                              
1001c269  xdc_runtime_System_Module_GateProxy_query__E__mangled__                   
200001f8  xdc_runtime_System_Module__state__V                                       
1001c87f  xdc_runtime_System_Module_startup__E                                      
000081cd  xdc_runtime_System_SupportProxy_abort__E                                  
000089e1  xdc_runtime_System_SupportProxy_exit__E                                   
00000568  xdc_runtime_System_abortFxn__C                                            
1001c899  xdc_runtime_System_abortSpin__E                                           
00008ad7  xdc_runtime_System_abortStd__E                                            
1001c749  xdc_runtime_System_abort__E                                               
1001c681  xdc_runtime_System_atexit__E                                              
0000056c  xdc_runtime_System_exitFxn__C                                             
1001c89b  xdc_runtime_System_exitSpin__E                                            
1001c7d1  xdc_runtime_System_exit__E                                                
00000570  xdc_runtime_System_maxAtexitHandlers__C                                   
1001c6b9  xdc_runtime_System_processAtExit__E                                       
00000588  xdc_runtime_Text_charCnt__C                                               
00008cd8  xdc_runtime_Text_charTab__A                                               
00000574  xdc_runtime_Text_charTab__C                                               
1001c71d  xdc_runtime_Text_cordText__E                                              
0000058a  xdc_runtime_Text_isLoaded__C                                              
00000578  xdc_runtime_Text_nameEmpty__C                                             
0000057c  xdc_runtime_Text_nameStatic__C                                            
00000580  xdc_runtime_Text_nameUnknown__C                                           
1001c7e9  xdc_runtime_Text_ropeText__E                                              
1001c831  xdc_runtime_Timestamp_SupportProxy_get32__E                               
000088cb  xdc_runtime_Timestamp_SupportProxy_get32__E__mangled__                    
1001b9d1  xdc_runtime_Timestamp_SupportProxy_get64__E                               
1001b9d1  xdc_runtime_Timestamp_SupportProxy_get64__E__mangled__                    
1001c12f  xdc_runtime_Timestamp_SupportProxy_getFreq__E                             
1001c12f  xdc_runtime_Timestamp_SupportProxy_getFreq__E__mangled__                  
1001c831  xdc_runtime_Timestamp_get32__E                                            
1001c831  xdc_runtime_Timestamp_get32__E                                            
1001b9d1  xdc_runtime_Timestamp_get64__E                                            
1001b9d1  xdc_runtime_Timestamp_get64__E                                            
1001c12f  xdc_runtime_Timestamp_getFreq__E                                          
1001c12f  xdc_runtime_Timestamp_getFreq__E                                          
10015d19  zADD                                                                      
10015eb5  zADD32                                                                    
10015de9  zMACC32                                                                   
10015f0d  zMULT32                                                                   
10015bcd  zSET                                                                      
10015d5d  zSUB                                                                      
10015e69  zSUB32                                                                    


GLOBAL SYMBOLS: SORTED BY Symbol Address 

address   name                                                                      
-------   ----                                                                      
00000000  __ASM__                                                                   
00000000  __TI_static_base__                                                        
00000000  ti_sysbios_family_arm_m3_Hwi_resetVectors                                 
00000001  xdc_runtime_Startup__EXECFXN__C                                           
00000001  xdc_runtime_Startup__RESETFXN__C                                          
0000007f  __ISA__                                                                   
00000091  __PLAT__                                                                  
000000b8  __TARG__                                                                  
000000dd  __TRDR__                                                                  
00000100  ti_sysbios_knl_Task_Object__PARAMS__C                                     
0000013c  ti_sysbios_knl_Mailbox_Object__PARAMS__C                                  
00000170  ti_sysbios_family_arm_m3_Hwi_Object__PARAMS__C                            
000001a0  ti_sysbios_hal_Hwi_Object__PARAMS__C                                      
000001cc  ti_sysbios_heaps_HeapMem_Module__FXNS__C                                  
000001f4  ti_sysbios_knl_Swi_Object__PARAMS__C                                      
0000021c  ti_sysbios_gates_GateHwi_Module__FXNS__C                                  
00000240  ti_sysbios_gates_GateMutex_Module__FXNS__C                                
00000264  ti_sysbios_heaps_HeapMem_Object__PARAMS__C                                
00000288  ti_sysbios_knl_Clock_Object__PARAMS__C                                    
000002ac  ti_sysbios_knl_Semaphore_Object__PARAMS__C                                
000002d0  ti_sysbios_family_arm_m3_Hwi_Object__DESC__C                              
000002f0  ti_sysbios_gates_GateHwi_Object__DESC__C                                  
00000310  ti_sysbios_gates_GateMutex_Object__DESC__C                                
00000330  ti_sysbios_hal_Hwi_Object__DESC__C                                        
00000350  ti_sysbios_heaps_HeapMem_Object__DESC__C                                  
00000370  ti_sysbios_knl_Clock_Object__DESC__C                                      
00000390  ti_sysbios_knl_Mailbox_Object__DESC__C                                    
000003b0  ti_sysbios_knl_Queue_Object__DESC__C                                      
000003d0  ti_sysbios_knl_Semaphore_Object__DESC__C                                  
000003f0  ti_sysbios_knl_Swi_Object__DESC__C                                        
00000400  __STACK_SIZE                                                              
00000410  ti_sysbios_knl_Task_Object__DESC__C                                       
00000430  ti_sysbios_gates_GateHwi_Object__PARAMS__C                                
00000448  ti_sysbios_gates_GateMutex_Object__PARAMS__C                              
00000460  ti_sysbios_knl_Queue_Object__PARAMS__C                                    
00000478  ti_sysbios_knl_Idle_funcList__C                                           
00000481  List_head                                                                 
00000484  ti_sysbios_family_arm_cc26xx_Timer_startupNeeded__C                       
00000488  ti_sysbios_family_arm_m3_Hwi_E_alreadyDefined__C                          
0000048c  ti_sysbios_family_arm_m3_Hwi_E_hwiLimitExceeded__C                        
00000490  ti_sysbios_family_arm_m3_Hwi_NUM_INTERRUPTS__C                            
00000494  ti_sysbios_family_arm_m3_Hwi_Object__count__C                             
00000498  ti_sysbios_family_arm_m3_Hwi_Object__table__C                             
0000049c  ti_sysbios_family_arm_m3_Hwi_ccr__C                                       
000004a0  ti_sysbios_family_arm_m3_Hwi_excHandlerFunc__C                            
000004a4  ti_sysbios_family_arm_m3_Hwi_nullIsrFunc__C                               
000004a8  ti_sysbios_family_arm_m3_Hwi_numSparseInterrupts__C                       
000004ac  ti_sysbios_family_arm_m3_Hwi_priGroup__C                                  
000004b0  ti_sysbios_family_arm_m3_TaskSupport_stackAlignment__C                    
000004b4  ti_sysbios_heaps_HeapMem_E_memory__C                                      
000004b8  ti_sysbios_heaps_HeapMem_Module__gateObj__C                               
000004bc  ti_sysbios_heaps_HeapMem_Object__count__C                                 
000004c0  ti_sysbios_heaps_HeapMem_Object__table__C                                 
000004c4  ti_sysbios_heaps_HeapMem_reqAlign__C                                      
000004c8  ti_sysbios_knl_Clock_serviceMargin__C                                     
000004cc  ti_sysbios_knl_Mailbox_Object__count__C                                   
000004d0  ti_sysbios_knl_Mailbox_Object__table__C                                   
000004d4  ti_sysbios_knl_Queue_Object__count__C                                     
000004d8  ti_sysbios_knl_Queue_Object__table__C                                     
000004dc  ti_sysbios_knl_Swi_Object__count__C                                       
000004e0  ti_sysbios_knl_Swi_Object__table__C                                       
000004e4  ti_sysbios_knl_Swi_numPriorities__C                                       
000004e8  ti_sysbios_knl_Task_Object__count__C                                      
000004ec  ti_sysbios_knl_Task_Object__table__C                                      
000004f0  ti_sysbios_knl_Task_allBlockedFunc__C                                     
000004f4  ti_sysbios_knl_Task_defaultStackHeap__C                                   
000004f8  ti_sysbios_knl_Task_defaultStackSize__C                                   
000004fc  ti_sysbios_knl_Task_numConstructedTasks__C                                
00000501  DefaultAssertCback                                                        
00000502  ti_sysbios_family_arm_cc26xx_Timer_Module__id__C                          
00000504  ti_sysbios_family_arm_cc26xx_TimestampProvider_useClockTimer__C           
00000506  ti_sysbios_family_arm_m3_Hwi_Module__id__C                                
00000508  ti_sysbios_gates_GateHwi_Module__id__C                                    
0000050a  ti_sysbios_gates_GateMutex_Module__id__C                                  
0000050c  ti_sysbios_heaps_HeapMem_Module__id__C                                    
0000050e  ti_sysbios_knl_Task_initStackFlag__C                                      
00000510  ti_sysbios_knl_Clock_tickMode__C                                          
00000514  xdc_runtime_Startup_firstFxns__C                                          
0000051c  xdc_runtime_Startup_lastFxns__C                                           
00000524  xdc_runtime_Assert_E_assertFailed__C                                      
00000528  xdc_runtime_Error_E_memory__C                                             
0000052c  xdc_runtime_Error_policyFxn__C                                            
00000530  xdc_runtime_IGateProvider_Interface__BASE__C                              
00000534  xdc_runtime_IHeap_Interface__BASE__C                                      
00000538  xdc_runtime_IModule_Interface__BASE__C                                    
0000053c  xdc_runtime_Main_Module__diagsEnabled__C                                  
00000540  xdc_runtime_Main_Module__diagsIncluded__C                                 
00000544  xdc_runtime_Main_Module__diagsMask__C                                     
00000548  xdc_runtime_Memory_defaultHeapInstance__C                                 
0000054c  xdc_runtime_Startup_execImpl__C                                           
00000550  xdc_runtime_Startup_maxPasses__C                                          
00000554  xdc_runtime_Startup_sfxnRts__C                                            
00000558  xdc_runtime_Startup_sfxnTab__C                                            
0000055c  xdc_runtime_Startup_startModsFxn__C                                       
00000560  xdc_runtime_SysCallback_abortFxn__C                                       
00000564  xdc_runtime_SysCallback_exitFxn__C                                        
00000568  xdc_runtime_System_abortFxn__C                                            
0000056c  xdc_runtime_System_exitFxn__C                                             
00000570  xdc_runtime_System_maxAtexitHandlers__C                                   
00000574  xdc_runtime_Text_charTab__C                                               
00000578  xdc_runtime_Text_nameEmpty__C                                             
0000057c  xdc_runtime_Text_nameStatic__C                                            
00000580  xdc_runtime_Text_nameUnknown__C                                           
00000584  xdc_runtime_Main_Module__id__C                                            
00000586  xdc_runtime_Memory_Module__id__C                                          
00000588  xdc_runtime_Text_charCnt__C                                               
0000058a  xdc_runtime_Text_isLoaded__C                                              
0000058c  xdc_runtime_Error_policy__C                                               
00000590  ti_sysbios_rom_ROM_AONRTCChannelEnable                                    
00000594  ti_sysbios_rom_ROM_AONRTCCompareValueSet                                  
00000598  ti_sysbios_rom_ROM_AONRTCCurrentCompareValueGet                           
0000059c  ti_sysbios_rom_ROM_AONRTCEventClear                                       
000005a0  ti_sysbios_rom_ROM_ti_sysbios_family_arm_cc26xx_Timer_getCount64__E       
000005a4  ti_sysbios_rom_ROM_ti_sysbios_family_arm_cc26xx_Timer_getCurrentTick__E   
000005a8  ti_sysbios_rom_ROM_ti_sysbios_family_arm_cc26xx_Timer_getMaxTicks__E      
000005ac  ti_sysbios_rom_ROM_ti_sysbios_family_arm_cc26xx_Timer_initDevice__I       
000005b0  ti_sysbios_rom_ROM_ti_sysbios_family_arm_cc26xx_Timer_setNextTick__E      
000005b4  ti_sysbios_rom_ROM_ti_sysbios_family_arm_cc26xx_Timer_setThreshold__I     
000005b8  ti_sysbios_rom_ROM_ti_sysbios_family_arm_cc26xx_Timer_start__E            
000005bc  ti_sysbios_rom_ROM_ti_sysbios_family_arm_cc26xx_TimestampProvider_get32__E
000005c0  ti_sysbios_rom_ROM_xdc_runtime_Startup_getState__I                        
000005c4  ti_sysbios_rom_ROM_xdc_runtime_System_SupportProxy_abort__E               
000005c8  ti_sysbios_rom_ROM_xdc_runtime_System_SupportProxy_exit__E                
000005cc  ti_sysbios_gates_GateMutex_Instance_State_sem__O                          
000005d0  ti_sysbios_knl_Clock_Module_State_clockQ__O                               
000005d4  ti_sysbios_knl_Mailbox_Instance_State_dataQue__O                          
000005d8  ti_sysbios_knl_Mailbox_Instance_State_dataSem__O                          
000005dc  ti_sysbios_knl_Mailbox_Instance_State_freeQue__O                          
000005e0  ti_sysbios_knl_Mailbox_Instance_State_freeSem__O                          
000005e4  ti_sysbios_knl_Semaphore_Instance_State_pendQ__O                          
000005e8  ti_sysbios_knl_Task_Module_State_inactiveQ__O                             
0000236d  SC_init                                                                   
000025dd  GAPRole_SetParameter                                                      
00002825  Power_sleep                                                               
00002a4d  NOROM_SysCtrlSetRechargeBeforePowerDown                                   
00003039  IntervalService_SetParameter                                              
00003205  RF_cancelCmd                                                              
000033d1  PIN_init                                                                  
00003595  RF_postCmd                                                                
00003745  PowerCC26XX_doCalibrate                                                   
00003a39  NOROM_SetupTrimDevice                                                     
00003a39  ti_sysbios_family_arm_cc26xx_Boot_trimDevice                              
00003ca9  GAPRole_GetParameter                                                      
00003dc9  Power_init                                                                
0000421b  NOROM_RFCAdi3VcoLdoVoltageMode                                            
0000421d  fputc                                                                     
0000421d  putc                                                                      
000043e9  Power_releaseDependency                                                   
000044bd  setvbuf                                                                   
00004591  Power_setDependency                                                       
00004661  main                                                                      
00004731  RF_open                                                                   
000047f5  PowerCC26XX_standbyPolicy                                                 
000048b1  __TI_closefile                                                            
00004c29  TRNGCC26XX_getNumber                                                      
00004cc9  __TI_auto_init                                                            
00004d69  __aeabi_memcpy                                                            
00004d69  __aeabi_memcpy4                                                           
00004d69  __aeabi_memcpy8                                                           
00004d69  memcpy                                                                    
00004e05  ti_sysbios_knl_Clock_workFuncDynamic__E                                   
00004e9d  __aeabi_uldivmod                                                          
00004f33  NOROM_RFCRTrim                                                            
00004fc9  PIN_open                                                                  
000050ed  NOROM_OSCHF_GetStartupTime                                                
000050ed  PowerCC26XX_getXoscStartupTime                                            
000051fd  ICall_heapMalloc                                                          
00005281  RF_pendCmd                                                                
000053f9  uartLog_outputFxn                                                         
000054f1  __aeabi_memclr                                                            
000054f1  __aeabi_memclr4                                                           
000054f1  __aeabi_memclr8                                                           
000054f3  __aeabi_memset                                                            
000054f3  __aeabi_memset4                                                           
000054f3  __aeabi_memset8                                                           
000054f9  memset                                                                    
0000556d  GATTServApp_ProcessCharCfg                                                
000055e5  Adc_service_SetParameter                                                  
00005659  ICallPlatform_pwrUpdActivityCounter                                       
00005741  PowerCC26XX_auxISR                                                        
0000589d  ti_sysbios_family_arm_cc26xx_Timer_start__E                               
00005911  fseek                                                                     
00005981  ICall_createRemoteTasks                                                   
000059ed  PowerCC26XX_calibrate                                                     
00005a59  HOSTlseek                                                                 
00005ac1  NOROM_SysCtrl_DCDC_VoltageConditionalControl                              
00005b29  RF_getCurrentTime                                                         
00005b91  RF_getInfo                                                                
00005c61  __TI_decompress_lzss                                                      
00005cc9  getdevice                                                                 
00005d31  HOSTrename                                                                
00005e59  PowerCC26XX_RCOSC_clockFunc                                               
00005f19  HOSTopen                                                                  
00005fd1  NOROM_OSCHF_AttemptToSwitchToXosc                                         
0000602d  NOROM_SysCtrlAdjustRechargeAfterPowerDown                                 
00006089  xdc_runtime_Startup_getState__I                                           
000060e5  HOSTread                                                                  
0000613d  PowerCC26XX_initiateCalibration                                           
000061ed  user_enqueueCharDataMsg                                                   
00006245  HOSTwrite                                                                 
00006395  fflush                                                                    
000064e3  _nop                                                                      
000064e5  GAP_UpdateAdvertisingData                                                 
00006585  Util_convertBdAddr2Str                                                    
000066bd  NOROM_OSCClockSourceSet                                                   
00006709  __TI_doflush                                                              
000067a1  copy_in                                                                   
000067ed  GAPRole_TerminateConnection                                               
00006835  NOROM_ChipInfo_GetChipFamily                                              
0000687d  NOROM_DDI16BitfieldWrite                                                  
0000690d  RF_getRssi                                                                
00006955  RF_runCmd                                                                 
00006a2d  scifInitIo                                                                
00006a75  AssertHandler                                                             
00006ab9  ResetISR                                                                  
00006ab9  _c_int00                                                                  
00006b41  user_enqueueRawAppMsg                                                     
00006b85  xdc_runtime_LoggerCallback_write8__E                                      
00006c0d  GAPRole_createTask                                                        
00006c4d  HOSTclose                                                                 
00006c8d  HOSTunlink                                                                
00006ccd  NOROM_DDI16BitfieldRead                                                   
00006d0d  xdc_runtime_LoggerCallback_Module_startup__E                              
00006d8d  GAP_GetParamValue                                                         
00006dc9  GATTServApp_RegisterService                                               
00006e05  ICallPlatform_pwrConfigACAction                                           
00006e7d  NOROM_OSC_HPOSCRelativeFrequencyOffsetGet                                 
00006eb9  NOROM_RFCSynthPowerDown                                                   
00006ef5  PIN_setOutputValue                                                        
00006f31  ProjectZero_createTask                                                    
00007095  Util_restartClock                                                         
000070cd  __TI_writemsg                                                             
000070fb  C$$IO$$                                                                   
00007105  scifOsalInit                                                              
0000713d  ti_sysbios_family_arm_cc26xx_Timer_getCurrentTick__E                      
000071e1  GAPBondMgr_SetParameter                                                   
00007215  GAP_SetParamValue                                                         
000072e5  ICall_searchServiceEntity                                                 
0000734d  NOROM_DDI32RegWrite                                                       
00007381  NOROM_OSCHF_SwitchToRcOscTurnOffXosc                                      
000073b5  PIN_setConfig                                                             
000073e9  PowerCC26XX_isStableXOSC_HF                                               
00007451  Util_constructClock                                                       
00007485  __TI_readmsg                                                              
00007521  osal_snv_read                                                             
00007555  osal_snv_write                                                            
000075f1  strncpy                                                                   
00007625  ti_sysbios_family_arm_cc26xx_Timer_initDevice__I                          
00007659  xdc_runtime_LoggerCallback_write4__E                                      
00007787  ti_sysbios_family_arm_cc26xx_Timer_setNextTick__E                         
000077e9  ICallPlatform_pwrRegisterNotify                                           
000078a9  NOROM_SetupSetAonRtcSubSecInc                                             
000078d9  NOROM_TRNGConfigure                                                       
00007909  Power_releaseConstraint                                                   
00007939  Power_setConstraint                                                       
00007999  ti_sysbios_BIOS_atExitFunc__I                                             
000079c9  ti_sysbios_BIOS_startFunc__I                                              
000079f9  ti_sysbios_family_arm_cc26xx_Timer_setThreshold__I                        
00007a29  xdc_runtime_LoggerCallback_Object__create__S                              
00007ab5  malloc                                                                    
00007ae3  __aeabi_idiv0                                                             
00007ae3  __aeabi_ldiv0                                                             
00007ae5  HCI_EXT_ConnEventNoticeCmd                                                
00007b11  ICall_heapFree                                                            
00007c19  __TI_cleanup                                                              
00007c9d  ti_sysbios_knl_Clock_getTicksUntilInterrupt__E                            
00007cc9  xdc_runtime_LoggerCallback_write2__E                                      
00007d49  NOROM_AONBatMonTemperatureGetDegC                                         
00007d71  NOROM_RFCDoorbellSendTo                                                   
00007d99  PowerCC26XX_switchXOSC_HF                                                 
00007dc1  Power_registerNotify                                                      
00007de9  SafeHapiVoid                                                              
00007e11  TRNGCC26XX_init                                                           
00007e61  remove                                                                    
00007e61  unlink                                                                    
00007e89  write                                                                     
00007eb1  xdc_runtime_LoggerCallback_write0__E                                      
00007ed9  xdc_runtime_LoggerCallback_write1__E                                      
00007f01  List_put                                                                  
00007f4b  ti_sysbios_BIOS_linkedWithIncorrectBootLibrary__E                         
00007f4d  PINCC26XX_getPinCount                                                     
00007fb9  memcmp                                                                    
00008001  ti_sysbios_BIOS_registerRTSLock__I                                        
00008025  ti_sysbios_BIOS_removeRTSLock__I                                          
00008049  ti_sysbios_family_arm_cc26xx_Timer_getMaxTicks__E                         
0000806d  GATTServApp_InitCharCfg                                                   
0000810d  NOROM_RFCRfTrimRead                                                       
0000816d  ti_sysbios_BIOS_rtsLock__I                                                
0000818d  ti_sysbios_family_arm_cc26xx_Timer_dynamicStub__E                         
000081ad  ti_sysbios_knl_Clock_stop__E                                              
000081cd  xdc_runtime_SysStd_abort__E                                               
000081cd  xdc_runtime_System_SupportProxy_abort__E                                  
0000820b  Power_getTransitionLatency                                                
00008265  NOROM_OSCClockSourceGet                                                   
000082b9  TRNGCC26XX_open                                                           
000082f1  openTRNG                                                                  
00008329  ti_sysbios_family_arm_m3_Hwi_clearInterrupt__E                            
00008329  ti_sysbios_hal_Hwi_HwiProxy_clearInterrupt__E                             
00008329  ti_sysbios_hal_Hwi_clearInterrupt__E                                      
00008345  xdc_runtime_LoggerCallback_Instance_init__E                               
00008361  ICall_enterCSImpl                                                         
000083af  ti_sysbios_BIOS_nullFunc__I                                               
000083b1  GATT_bm_free                                                              
000083c9  ICallPlatform_pwrDispense                                                 
000083e1  ICallPlatform_pwrRequire                                                  
00008441  NOROM_AONRTCCurrentCompareValueGet                                        
00008459  NOROM_ChipInfo_GetPackageType                                             
00008471  NOROM_OSCHF_TurnOnXosc                                                    
00008489  NOROM_RFCCpeIntGetAndClear                                                
000084a1  Power_idleFunc                                                            
000084d1  RF_runDirectCmd                                                           
000084e9  RF_runImmediateCmd                                                        
00008501  _args_main                                                                
00008531  free                                                                      
00008549  gapRole_clockHandler                                                      
00008579  __aeabi_lmul                                                              
00008591  scifReinitIo                                                              
000085a9  scifUninitIo                                                              
000085c1  strcmp                                                                    
000085f1  ti_sysbios_BIOS_rtsUnlock__I                                              
00008609  ti_sysbios_knl_Swi_or__E                                                  
00008621  ti_sysbios_rom_cortexm_cc26xx_CC26xx_checkRevision__E                     
00008639  ICall_leaveCSImpl                                                         
00008665  driverTable_fnSpinlock                                                    
0000867b  strchr                                                                    
00008691  ti_sysbios_BIOS_exitFunc__I                                               
000086bd  NOROM_AONRTCCurrent64BitValueGet                                          
000086d1  RF_Params_init                                                            
000086f9  strlen                                                                    
0000870d  ti_sysbios_knl_Clock_doTick__I                                            
00008721  RF_getCmdOp                                                               
00008733  strcpy                                                                    
00008757  xdc_runtime_Startup_exec__I                                               
00008779  GAP_EndDiscoverable                                                       
00008789  ICallPlatform_pwrGetXOSCStartupTime                                       
000087b9  NOROM_RFCRfTrimSet                                                        
000087c9  Util_isActive                                                             
000087d9  ti_sysbios_family_arm_m3_Hwi_post__E                                      
000087d9  ti_sysbios_hal_Hwi_HwiProxy_post__E                                       
000087d9  ti_sysbios_hal_Hwi_post__E                                                
000087e9  xdc_runtime_LoggerCallback_Object__get__S                                 
000087f9  ICallPlatform_pwrGetTransitionState                                       
00008807  ICallPlatform_pwrIsStableXOSCHF                                           
0000884d  NOROM_SetupSignExtendVddrTrimValue                                        
0000885b  NOROM_VIMSModeGet                                                         
00008869  __TI_decompress_none                                                      
000088cb  ti_sysbios_family_arm_cc26xx_TimestampProvider_get32__E                   
000088cb  xdc_runtime_Timestamp_SupportProxy_get32__E__mangled__                    
00008921  NOROM_CPUcpsid                                                            
0000892d  NOROM_CPUcpsie                                                            
00008939  Power_getConstraintMask                                                   
00008945  Power_getDependencyCount                                                  
00008951  Power_getTransitionState                                                  
0000895d  _register_lock                                                            
00008969  _register_unlock                                                          
00008975  __TI_zero_init                                                            
00008999  putchar                                                                   
000089a5  ti_sysbios_BIOS_getThreadType__E                                          
000089b1  ti_sysbios_hal_Hwi_Params__init__S                                        
000089bd  ti_sysbios_knl_Swi_getTrigger__E                                          
000089c9  xdc_runtime_Startup_reset__I                                              
000089d5  xdc_runtime_Startup_rtsDone__E                                            
000089e1  xdc_runtime_SysStd_exit__E                                                
000089e1  xdc_runtime_System_SupportProxy_exit__E                                   
000089ed  ICallPlatform_pwrSwitchXOSCHF                                             
00008a01  List_empty                                                                
00008a1f  xdc_runtime_LoggerCallback_disable__E                                     
00008a29  xdc_runtime_LoggerCallback_enable__E                                      
00008a33  RF_flushCmd                                                               
00008ab5  scifOsalDisableTaskAlertInt                                               
00008abb  scifOsalEnableTaskAlertInt                                                
00008ac1  ti_sysbios_family_arm_m3_Hwi_setFunc__E                                   
00008ac7  HwiP_disable                                                              
00008acb  List_next                                                                 
00008ad3  Util_stopClock                                                            
00008ad7  C$$EXIT                                                                   
00008ad7  abort                                                                     
00008ad7  xdc_runtime_System_abortStd__E                                            
00008adf  ti_sysbios_family_arm_cc26xx_Timer_getCount64__E                          
00008ae3  ti_sysbios_knl_Clock_isActive__E                                          
00008ae7  xdc_runtime_LoggerCallback_defaultCreate                                  
00008aeb  ti_sysbios_knl_Clock_triggerFunc__I                                       
00008aed  ti_sysbios_rom_cortexm_cc26xx_CC26xx_badRomRevision__E                    
00008aef  uartLog_flush                                                             
00008af3  xdc_runtime_SysCallback_defaultAbort                                      
00008af5  xdc_runtime_SysCallback_defaultExit                                       
00008cd8  xdc_runtime_Text_charTab__A                                               
0000a808  adc_serviceCBs                                                            
0000a814  adc_service_FREQUUID                                                      
0000a824  adc_service_GradientUUID                                                  
0000a834  adc_service_TempUUID                                                      
0000a844  adc_service_VDDUUID                                                       
0000a854  resourceDB                                                                
0000a8a0  rfDriverTable                                                             
0000a934  xdc_runtime_LoggerCallback_Module__FXNS__C                                
0000a968  scifDriverSetup                                                           
0000a998  primaryServiceUUID                                                        
0000a99a  characterUUID                                                             
0000a99c  clientCharCfgUUID                                                         
0000a99e  gapServiceUUID                                                            
0000a9a0  gattServiceUUID                                                           
0000a9a2  secondaryServiceUUID                                                      
0000a9a4  includeUUID                                                               
0000a9a6  charExtPropsUUID                                                          
0000a9a8  charUserDescUUID                                                          
0000a9aa  servCharCfgUUID                                                           
0000a9ac  charFormatUUID                                                            
0000a9ae  charAggFormatUUID                                                         
0000a9b0  deviceNameUUID                                                            
0000a9b2  appearanceUUID                                                            
0000a9b4  periPrivacyFlagUUID                                                       
0000a9b6  reconnectAddrUUID                                                         
0000a9b8  periConnParamUUID                                                         
0000a9ba  serviceChangedUUID                                                        
0000a9bc  validRangeUUID                                                            
0000a9be  extReportRefUUID                                                          
0000a9c0  reportRefUUID                                                             
0000a9c4  BoardGpioInitTable                                                        
0000a9ec  xdc_runtime_Startup_sfxnTab__A                                            
0000aa14  txPowerTable                                                              
0000aa3c  xdc_runtime_LoggerCallback_Object__DESC__C                                
0000aa5c  INTERVAL_ServiceCBs                                                       
0000aa68  is_INTERVAL0UUID                                                          
0000aa78  xdc_runtime_LoggerCallback_Object__PARAMS__C                              
0000aaa8  xdc_runtime_Startup_sfxnRts__A                                            
0000aade  IntervalServiceUUID                                                       
0000aafe  adc_serviceUUID                                                           
0000ab00  PowerCC26XX_config                                                        
0000ab10  TRNGCC26XX_config                                                         
0000ab30  devInfoCBs                                                                
0000ab3c  trngDriverTable                                                           
0000ab48  xdc_runtime_Startup_firstFxns__A                                          
0000ab5c  PINCC26XX_hwAttrs                                                         
0000ab74  ti_sysbios_knl_Idle_funcList__A                                           
0000ab7c  txPwrTbl                                                                  
0000ab82  RFCC26XX_hwAttrs                                                          
0000ab86  devInfo11073CertUUID                                                      
0000ab88  TRNGCC26XXHWAttrs                                                         
0000ab90  ti_sysbios_knl_Clock_tickPeriod__C                                        
0000ab94  ti_sysbios_knl_Clock_triggerClock__C                                      
0000ab98  xdc_runtime_ILogger_Interface__BASE__C                                    
0000ab9c  xdc_runtime_Log_L_error__C                                                
0000aba0  xdc_runtime_Log_L_info__C                                                 
0000aba4  xdc_runtime_LoggerCallback_Object__count__C                               
0000aba8  xdc_runtime_LoggerCallback_createInstFxn__C                               
0000abac  xdc_runtime_LoggerCallback_outputFxn__C                                   
0000abb0  xdc_runtime_Main_Module__loggerFxn4__C                                    
0000abb4  xdc_runtime_Main_Module__loggerFxn8__C                                    
0000abb8  xdc_runtime_Main_Module__loggerObj__C                                     
0000abbc  devInfoFirmwareRevUUID                                                    
0000abbe  devInfoHardwareRevUUID                                                    
0000abc0  devInfoMfrNameUUID                                                        
0000abc2  devInfoModelNumberUUID                                                    
0000abc4  devInfoPnpIdUUID                                                          
0000abc6  devInfoSerialNumberUUID                                                   
0000abc8  devInfoServUUID                                                           
0000abca  devInfoSoftwareRevUUID                                                    
0000abcc  devInfoSystemIdUUID                                                       
0000abce  xdc_runtime_Main_Module__loggerDefined__C                                 
0000abd0  __c_args__                                                                
0000b000  __TI_Handler_Table_Base                                                   
0000b00c  __TI_Handler_Table_Limit                                                  
0000b040  __TI_CINIT_Base                                                           
0000b0a0  __TI_CINIT_Limit                                                          
0000e0ea  __checksum_value_CommonROM                                                
0001ffa8  __ccfg                                                                    
10014c00  A1_rw                                                                     
10014c00  __checksum_begin_CommonROM                                                
10014c01  COMMON_ROM_BASE_ADDR                                                      
10014c04  P1_ro                                                                     
10014c05  SCALARMUL_init                                                            
10014ced  SCALARMUL_core                                                            
10015019  SCALARMUL_final                                                           
100150e5  SCALARMUL                                                                 
10015101  SAVEPOINT                                                                 
10015141  GETBIT                                                                    
10015155  GETDIGIT                                                                  
100151a5  GETDIGITL2R                                                               
10015215  SelectReg                                                                 
10015229  ATOMICPATTERN                                                             
100154f5  JACADD                                                                    
1001568d  INVERT                                                                    
10015821  SQUAREMULTIPLYWORD                                                        
1001588c  LUTOPCODE                                                                 
10015894  LUTOPSIGN                                                                 
100158ac  LUTC                                                                      
100158c4  LUTSE                                                                     
100158dc  LUTINCI                                                                   
100158f4  LUTJ                                                                      
1001596c  LUTSTATE                                                                  
100159a9  IMPORTLENGTH                                                              
100159ad  IMPORTMODULUS                                                             
100159d1  IMPORTOPERAND                                                             
10015a11  EXPORTOPERAND                                                             
10015a35  IMPORTDATA                                                                
10015a51  SETOPERAND                                                                
10015a6d  COPY                                                                      
10015a85  ZERO                                                                      
10015a91  SETWORD                                                                   
10015a9d  mSET                                                                      
10015bcd  zSET                                                                      
10015bd5  mINVK                                                                     
10015d19  zADD                                                                      
10015d5d  zSUB                                                                      
10015de9  zMACC32                                                                   
10015e69  zSUB32                                                                    
10015eb5  zADD32                                                                    
10015f0d  zMULT32                                                                   
10015f81  mMULT                                                                     
10016551  mADD                                                                      
1001664d  mSUB                                                                      
10016749  mOUT                                                                      
10016975  ssp_KeyInit_Sw                                                            
10016979  sspAesEncrypt_Sw                                                          
10016985  sspKeyExpansion_Sw                                                        
10016a99  sspAesEncryptKeyExp_Sw                                                    
10016af5  sspAesEncryptBasic_Sw                                                     
10016b79  RoundKey_Sw                                                               
10016c29  AddRoundKeySubBytes_Sw                                                    
10016c45  ShiftRows_Sw                                                              
10016c79  MixColumns_Sw                                                             
10016d05  FFMult_Sw                                                                 
10016d29  sspAesDecrypt_Sw                                                          
10016da1  InvAddRoundKey_Sw                                                         
10016dc9  InvRoundKey_Sw                                                            
10016e8d  InvSubBytes_Sw                                                            
10016ea1  InvShiftRows_Sw                                                           
10016ed5  InvMixColumns_Sw                                                          
10016f58  FFMult2                                                                   
10017058  FFMult3                                                                   
10017158  RCon                                                                      
10017164  Sbox                                                                      
10017264  InvSbox                                                                   
10017365  SSP_CCM_Auth_Sw                                                           
100174fd  SSP_CCM_Encrypt_Sw                                                        
100175ed  SSP_CTR_Encrypt_Sw                                                        
1001767d  SSP_CCM_Decrypt_Sw                                                        
10017771  SSP_CTR_Decrypt_Sw                                                        
10017839  SSP_CCM_InvAuth_Sw                                                        
10017895  SSP_CCM_Auth_Encrypt_Sw                                                   
100178f5  SSP_CCM_InvAuth_Decrypt_Sw                                                
10017959  ECC_allocWorkzone                                                         
10017961  ECC_setWin                                                                
10017969  ECDSA_sign                                                                
10017b01  ECDSA_verif                                                               
10017dbd  eccRom_genKeys                                                            
10017ded  eccRom_genSharedSecret                                                    
10017e39  SHA256_updateW                                                            
10017e75  SHA256_round                                                              
10017ef1  SHA256_nextState                                                          
10017f49  SHA256_saveBuffer                                                         
10017ffd  SHA256_init                                                               
10018019  SHA256_process                                                            
10018089  SHA256_final                                                              
10018129  SHA256_full                                                               
100182ad  RFHAL_InitRfHal                                                           
10018315  RFHAL_AllocRatChan                                                        
1001833d  RFHAL_FreeRatChan                                                         
10018369  RFHAL_MapRatChansToInt                                                    
10018391  RFHAL_RegisterRatChanCallback                                             
100183b9  RFHAL_InitDataQueue                                                       
100183c5  RFHAL_QueueRFDataEntries                                                  
10018415  RFHAL_AddTxDataEntry                                                      
10018485  RFHAL_FreeNextTxDataEntry                                                 
100184a9  RFHAL_AllocDataEntryQueue                                                 
100184c5  RFHAL_FreeDataEntryQueue                                                  
100184cd  RFHAL_GetNextDataEntry                                                    
100184d1  RFHAL_GetTempDataEntry                                                    
100184d5  RFHAL_NextDataEntryDone                                                   
100184f9  RFHAL_AllocDataEntry                                                      
10018549  RFHAL_FreeDataEntry                                                       
10018551  RFHAL_BuildRingBuffer                                                     
100185e1  RFHAL_BuildDataEntryRingBuffer                                            
10018669  RFHAL_BuildLinkedBuffer                                                   
10018755  MB_Init                                                                   
10018799  MB_EnableInts                                                             
100187f5  MB_DisableInts                                                            
10018825  MB_ClearInts                                                              
10018835  MB_EnableHWInts                                                           
10018865  MB_SendCommand                                                            
100188a5  MB_SendCommandSynch                                                       
10018935  MB_ReadMailboxStatus                                                      
1001893d  MB_RegisterIsrCback                                                       
10018945  MB_FwDebugDump                                                            
10018949  mbCmdAckIsr                                                               
1001895d  mbCpe0Isr                                                                 
10018985  mbCpe1Isr                                                                 
100189e5  mbHwIsr                                                                   
10018a19  AesCcm_authEncrypt_Sw                                                     
10018a35  AesCcm_decryptAuth_Sw                                                     
10018a99  Aes_encrypt_Sw                                                            
10018ac5  Aes_decrypt_Sw                                                            
10018b09  AesCcm_getNumBlocks_Sw                                                    
10018b0c  NIST_Curve_P256_p                                                         
10018b30  NIST_Curve_P256_r                                                         
10018b54  NIST_Curve_P256_a                                                         
10018b78  NIST_Curve_P256_b                                                         
10018b9c  NIST_Curve_P256_Gx                                                        
10018bc0  NIST_Curve_P256_Gy                                                        
10018ced  __exit                                                                    
10018d6c  Fill1                                                                     
10019ffc  A3_rw                                                                     
10019ffd  __checksum_end_CommonROM                                                  
10019ffe  A2_rw                                                                     
10019ffe  P1_ro_2                                                                   
10019ffe  __checksum_CommonROM                                                      
1001a001  ti_sysbios_knl_Mailbox_Instance_init__E                                   
1001a0cd  ti_sysbios_knl_Semaphore_pend__E                                          
1001a199  ti_sysbios_heaps_HeapMem_alloc__E                                         
1001a25d  ti_sysbios_knl_Task_Instance_init__E                                      
1001a319  ti_sysbios_family_arm_m3_Hwi_postInit__I                                  
1001a3c9  ti_sysbios_family_arm_m3_Hwi_Instance_init__E                             
1001a469  ti_sysbios_family_arm_cc26xx_Timer_periodicStub__E                        
1001a4fd  ti_sysbios_knl_Task_Instance_finalize__E                                  
1001a591  ti_sysbios_knl_Mailbox_post__E                                            
1001a615  ti_sysbios_knl_Task_postInit__I                                           
1001a699  ti_sysbios_family_arm_m3_Hwi_initNVIC__E                                  
1001a719  ti_sysbios_knl_Clock_startI__E                                            
1001a795  ti_sysbios_heaps_HeapMem_free__E                                          
1001a80d  ti_sysbios_knl_Clock_walkQueueDynamic__E                                  
1001a885  ti_sysbios_knl_Clock_workFunc__E                                          
1001a8fd  ti_sysbios_knl_Mailbox_pend__E                                            
1001a96d  ti_sysbios_knl_Task_sleep__E                                              
1001a9dd  ti_sysbios_knl_Mailbox_Instance_finalize__E                               
1001aa49  ti_sysbios_family_arm_m3_Hwi_dispatchC__I                                 
1001aab1  ti_sysbios_family_arm_m3_Hwi_Object__create__S                            
1001ab15  ti_sysbios_family_arm_m3_Hwi_create                                       
1001ab79  ti_sysbios_hal_Hwi_create                                                 
1001abdd  ti_sysbios_knl_Mailbox_create                                             
1001ac41  ti_sysbios_knl_Semaphore_post__E                                          
1001aca5  ti_sysbios_knl_Swi_Instance_init__E                                       
1001ad05  ti_sysbios_knl_Swi_create                                                 
1001ad61  ti_sysbios_knl_Swi_restoreHwi__E                                          
1001adbd  ti_sysbios_knl_Task_Module_startup__E                                     
1001ae19  ti_sysbios_knl_Task_create                                                
1001ae75  ti_sysbios_knl_Task_startCore__E                                          
1001aed1  ti_sysbios_family_arm_m3_Hwi_Instance_finalize__E                         
1001af29  ti_sysbios_family_arm_m3_Hwi_construct                                    
1001af81  ti_sysbios_knl_Mailbox_construct                                          
1001afd9  ti_sysbios_knl_Swi_run__I                                                 
1001b031  ti_sysbios_knl_Swi_schedule__I                                            
1001b085  ti_sysbios_knl_Swi_construct                                              
1001b0d5  ti_sysbios_knl_Swi_runLoop__I                                             
1001b125  ti_sysbios_knl_Task_construct                                             
1001b175  ti_sysbios_knl_Task_schedule__I                                           
1001b1c1  ti_sysbios_family_arm_m3_Hwi_Module_startup__E                            
1001b209  ti_sysbios_heaps_HeapMem_getStats__E                                      
1001b251  ti_sysbios_knl_Mailbox_Module_startup__E                                  
1001b299  ti_sysbios_family_arm_m3_Hwi_disableInterrupt__E                          
1001b299  ti_sysbios_hal_Hwi_HwiProxy_disableInterrupt__E__mangled__                
1001b2dd  ti_sysbios_family_arm_m3_Hwi_enableInterrupt__E                           
1001b2dd  ti_sysbios_hal_Hwi_HwiProxy_enableInterrupt__E__mangled__                 
1001b321  ti_sysbios_knl_Swi_post__E                                                
1001b365  ti_sysbios_knl_Task_allBlockedFunction__I                                 
1001b3a9  ti_sysbios_knl_Task_yield__E                                              
1001b3ed  ti_sysbios_knl_Clock_create                                               
1001b429  ti_sysbios_knl_Task_exit__E                                               
1001b463  ti_sysbios_gates_GateHwi_Instance_init__E                                 
1001b465  ti_sysbios_family_arm_m3_Hwi_getStackInfo__E                              
1001b465  ti_sysbios_hal_Hwi_HwiProxy_getStackInfo__E__mangled__                    
1001b49d  ti_sysbios_family_arm_m3_TaskSupport_start__E                             
1001b49d  ti_sysbios_knl_Task_SupportProxy_start__E__mangled__                      
1001b4d5  ti_sysbios_heaps_HeapMem_Instance_init__E                                 
1001b50d  ti_sysbios_knl_Clock_Instance_init__E                                     
1001b545  ti_sysbios_heaps_HeapMem_init__I                                          
1001b579  ti_sysbios_knl_Clock_construct                                            
1001b5ad  ti_sysbios_knl_Semaphore_create                                           
1001b5e1  ti_sysbios_knl_Swi_restore__E                                             
1001b615  ti_sysbios_knl_Task_blockI__E                                             
1001b649  ti_sysbios_gates_GateMutex_Object__create__S                              
1001b679  ti_sysbios_gates_GateMutex_create                                         
1001b6a9  ti_sysbios_gates_GateMutex_enter__E                                       
1001b6d9  ti_sysbios_knl_Clock_getTicks__E                                          
1001b709  ti_sysbios_knl_Semaphore_construct                                        
1001b739  ti_sysbios_knl_Task_processVitalTaskFlag__I                               
1001b769  ti_sysbios_family_arm_cc26xx_Timer_postInit__I                            
1001b795  ti_sysbios_family_arm_cc26xx_Timer_startup__E                             
1001b795  ti_sysbios_knl_Clock_TimerProxy_startup__E                                
1001b795  ti_sysbios_knl_Clock_TimerProxy_startup__E__mangled__                     
1001b7c1  ti_sysbios_family_arm_m3_Hwi_Object__get__S                               
1001b7ed  ti_sysbios_gates_GateMutex_construct                                      
1001b819  ti_sysbios_hal_Hwi_initStack                                              
1001b845  ti_sysbios_heaps_HeapMem_Object__create__S                                
1001b871  ti_sysbios_heaps_HeapMem_Object__get__S                                   
1001b89d  ti_sysbios_knl_Mailbox_Object__get__S                                     
1001b8c9  ti_sysbios_knl_Mailbox_postInit__I                                        
1001b8f5  ti_sysbios_knl_Queue_construct                                            
1001b921  ti_sysbios_knl_Queue_create                                               
1001b94d  ti_sysbios_knl_Semaphore_pendTimeout__I                                   
1001b979  ti_sysbios_knl_Swi_Object__get__S                                         
1001b9a5  ti_sysbios_knl_Task_unblockI__E                                           
1001b9d1  ti_sysbios_family_arm_cc26xx_TimestampProvider_get64__E                   
1001b9d1  xdc_runtime_Timestamp_SupportProxy_get64__E                               
1001b9d1  xdc_runtime_Timestamp_SupportProxy_get64__E__mangled__                    
1001b9d1  xdc_runtime_Timestamp_get64__E                                            
1001b9d1  xdc_runtime_Timestamp_get64__E                                            
1001b9f9  ti_sysbios_hal_Hwi_Instance_init__E                                       
1001ba21  ti_sysbios_knl_Clock_addI__E                                              
1001ba49  ti_sysbios_knl_Task_restore__E                                            
1001ba71  ti_sysbios_family_arm_cc26xx_Timer_Module_startup__E                      
1001ba95  ti_sysbios_gates_GateHwi_Object__create__S                                
1001bab9  ti_sysbios_BIOS_RtsGateProxy_Object__delete__S                            
1001bab9  ti_sysbios_BIOS_RtsGateProxy_Object__delete__S__mangled__                 
1001bab9  ti_sysbios_gates_GateMutex_Object__delete__S                              
1001bab9  ti_sysbios_heaps_HeapMem_Module_GateProxy_Object__delete__S               
1001bab9  ti_sysbios_heaps_HeapMem_Module_GateProxy_Object__delete__S__mangled__    
1001badd  ti_sysbios_knl_Clock_Object__delete__S                                    
1001bb01  ti_sysbios_knl_Semaphore_Instance_init__E                                 
1001bb25  ti_sysbios_knl_Semaphore_Object__delete__S                                
1001bb49  ti_sysbios_family_arm_cc26xx_Timer_Module__startupDone__S                 
1001bb49  ti_sysbios_knl_Clock_TimerProxy_Module__startupDone__S__mangled__         
1001bb69  ti_sysbios_family_arm_cc26xx_TimestampProvider_Module_startup__E          
1001bb89  ti_sysbios_family_arm_m3_Hwi_Module__startupDone__S                       
1001bb89  ti_sysbios_hal_Hwi_HwiProxy_Module__startupDone__S__mangled__             
1001bba9  ti_sysbios_family_arm_m3_Hwi_Object__delete__S                            
1001bba9  ti_sysbios_hal_Hwi_HwiProxy_Object__delete__S                             
1001bba9  ti_sysbios_hal_Hwi_HwiProxy_Object__delete__S__mangled__                  
1001bbc9  ti_sysbios_family_arm_m3_Hwi_excHandler__I                                
1001bbe9  ti_sysbios_gates_GateHwi_Handle__label__S                                 
1001bbe9  xdc_runtime_Main_Module_GateProxy_Handle__label__S                        
1001bbe9  xdc_runtime_System_Module_GateProxy_Handle__label__S                      
1001bbe9  xdc_runtime_System_Module_GateProxy_Handle__label__S__mangled__           
1001bc09  ti_sysbios_gates_GateHwi_Object__delete__S                                
1001bc09  xdc_runtime_Main_Module_GateProxy_Object__delete__S                       
1001bc09  xdc_runtime_System_Module_GateProxy_Object__delete__S                     
1001bc09  xdc_runtime_System_Module_GateProxy_Object__delete__S__mangled__          
1001bc29  ti_sysbios_BIOS_RtsGateProxy_Handle__label__S                             
1001bc29  ti_sysbios_BIOS_RtsGateProxy_Handle__label__S__mangled__                  
1001bc29  ti_sysbios_gates_GateMutex_Handle__label__S                               
1001bc29  ti_sysbios_heaps_HeapMem_Module_GateProxy_Handle__label__S                
1001bc29  ti_sysbios_heaps_HeapMem_Module_GateProxy_Handle__label__S__mangled__     
1001bc49  ti_sysbios_gates_GateMutex_Object__destruct__S                            
1001bc69  ti_sysbios_hal_Hwi_Object__delete__S                                      
1001bc89  ti_sysbios_heaps_HeapMem_Handle__label__S                                 
1001bc89  xdc_runtime_Memory_HeapProxy_Handle__label__S                             
1001bc89  xdc_runtime_Memory_HeapProxy_Handle__label__S__mangled__                  
1001bca9  ti_sysbios_heaps_HeapMem_Object__delete__S                                
1001bca9  xdc_runtime_Memory_HeapProxy_Object__delete__S                            
1001bca9  xdc_runtime_Memory_HeapProxy_Object__delete__S__mangled__                 
1001bcc9  ti_sysbios_knl_Clock_Module_startup__E                                    
1001bce9  ti_sysbios_knl_Clock_Object__destruct__S                                  
1001bd09  ti_sysbios_knl_Idle_run__E                                                
1001bd29  ti_sysbios_knl_Mailbox_Object__delete__S                                  
1001bd49  ti_sysbios_knl_Queue_Object__delete__S                                    
1001bd69  ti_sysbios_knl_Queue_Object__get__S                                       
1001bd89  ti_sysbios_knl_Semaphore_Object__destruct__S                              
1001bda9  ti_sysbios_knl_Swi_Object__delete__S                                      
1001bdc9  ti_sysbios_knl_Task_Object__delete__S                                     
1001bde9  ti_sysbios_knl_Task_Object__get__S                                        
1001be09  ti_sysbios_knl_Task_enter__I                                              
1001be29  ti_sysbios_knl_Task_restoreHwi__E                                         
1001be49  ti_sysbios_hal_Hwi_HwiProxy_create                                        
1001be67  ti_sysbios_knl_Clock_logTick__E                                           
1001be69  ti_sysbios_family_arm_m3_Hwi_Object__destruct__S                          
1001be85  ti_sysbios_family_arm_m3_Hwi_setPriority__E                               
1001bea1  ti_sysbios_gates_GateMutex_Instance_init__E                               
1001bebd  ti_sysbios_knl_Clock_scheduleNextTick__E                                  
1001bed9  ti_sysbios_knl_Mailbox_Object__destruct__S                                
1001bef5  ti_sysbios_knl_Queue_Object__destruct__S                                  
1001bf11  ti_sysbios_knl_Queue_get__E                                               
1001bf2d  ti_sysbios_knl_Queue_put__E                                               
1001bf49  ti_sysbios_knl_Swi_Object__destruct__S                                    
1001bf65  ti_sysbios_knl_Task_Object__destruct__S                                   
1001bf81  ti_sysbios_knl_Task_sleepTimeout__I                                       
1001bf9b  ti_sysbios_knl_Swi_Instance_finalize__E                                   
1001bf9d  ti_sysbios_gates_GateMutex_leave__E                                       
1001bfb5  ti_sysbios_knl_Task_unblock__E                                            
1001bfcd  ti_sysbios_knl_Clock_Instance_finalize__E                                 
1001bfe3  ti_sysbios_knl_Clock_start__E                                             
1001bff9  ti_sysbios_BIOS_getCpuFreq__E                                             
1001c00d  ti_sysbios_family_arm_m3_Hwi_switchFromBootStack__E                       
1001c00d  ti_sysbios_hal_Hwi_HwiProxy_switchFromBootStack__E__mangled__             
1001c021  ti_sysbios_hal_Hwi_Module_startup__E                                      
1001c035  ti_sysbios_BIOS_exit__E                                                   
1001c045  ti_sysbios_BIOS_setThreadType__E                                          
1001c055  ti_sysbios_BIOS_start__E                                                  
1001c065  ti_sysbios_family_arm_m3_Hwi_plug__E                                      
1001c075  ti_sysbios_gates_GateMutex_Instance_finalize__E                           
1001c085  ti_sysbios_hal_Hwi_HwiProxy_Object__create__S                             
1001c095  ti_sysbios_knl_Clock_TimerProxy_getCurrentTick__E                         
1001c0a5  ti_sysbios_knl_Clock_TimerProxy_getMaxTicks__E                            
1001c0b5  ti_sysbios_knl_Clock_TimerProxy_setNextTick__E                            
1001c0c5  ti_sysbios_knl_Semaphore_Instance_finalize__E                             
1001c0d5  ti_sysbios_knl_Swi_disable__E                                             
1001c0e5  ti_sysbios_knl_Swi_enabled__E                                             
1001c0f5  ti_sysbios_knl_Task_disable__E                                            
1001c105  ti_sysbios_heaps_HeapMem_restore__E                                       
1001c113  ti_sysbios_knl_Queue_empty__E                                             
1001c121  ti_sysbios_knl_Queue_remove__E                                            
1001c12f  ti_sysbios_family_arm_cc26xx_TimestampProvider_getFreq__E                 
1001c12f  xdc_runtime_Timestamp_SupportProxy_getFreq__E                             
1001c12f  xdc_runtime_Timestamp_SupportProxy_getFreq__E__mangled__                  
1001c12f  xdc_runtime_Timestamp_getFreq__E                                          
1001c12f  xdc_runtime_Timestamp_getFreq__E                                          
1001c13d  ti_sysbios_family_arm_m3_Hwi_Params__init__S                              
1001c13d  ti_sysbios_hal_Hwi_HwiProxy_Params__init__S                               
1001c13d  ti_sysbios_hal_Hwi_HwiProxy_Params__init__S__mangled__                    
1001c149  scifOsalEnterCriticalSection                                              
1001c149  ti_sysbios_family_arm_m3_Hwi_disableFxn__E                                
1001c155  ti_sysbios_family_arm_m3_Hwi_enableFxn__E                                 
1001c161  ti_sysbios_family_arm_m3_TaskSupport_getStackAlignment__E                 
1001c161  ti_sysbios_knl_Task_SupportProxy_getStackAlignment__E__mangled__          
1001c16d  ti_sysbios_gates_GateHwi_enter__E                                         
1001c179  ti_sysbios_BIOS_RtsGateProxy_Params__init__S                              
1001c179  ti_sysbios_BIOS_RtsGateProxy_Params__init__S__mangled__                   
1001c179  ti_sysbios_gates_GateMutex_Params__init__S                                
1001c179  ti_sysbios_heaps_HeapMem_Module_GateProxy_Params__init__S                 
1001c179  ti_sysbios_heaps_HeapMem_Module_GateProxy_Params__init__S__mangled__      
1001c185  ti_sysbios_knl_Clock_Params__init__S                                      
1001c191  ti_sysbios_knl_Clock_getTimerHandle__E                                    
1001c19d  ti_sysbios_knl_Mailbox_Params__init__S                                    
1001c1a9  ti_sysbios_knl_Queue_dequeue__E                                           
1001c1b5  ti_sysbios_knl_Queue_enqueue__E                                           
1001c1c1  ti_sysbios_knl_Semaphore_Params__init__S                                  
1001c1cd  ti_sysbios_knl_Swi_Params__init__S                                        
1001c1d9  ti_sysbios_knl_Task_Params__init__S                                       
1001c1e5  ti_sysbios_knl_Task_self__E                                               
1001c1f1  ti_sysbios_hal_Hwi_Instance_finalize__E                                   
1001c1fb  ti_sysbios_family_arm_m3_Hwi_doSwiRestore__I                              
1001c203  ti_sysbios_family_arm_m3_Hwi_startup__E                                   
1001c203  ti_sysbios_hal_Hwi_HwiProxy_startup__E__mangled__                         
1001c20b  ti_sysbios_knl_Idle_loop__E                                               
1001c213  ti_sysbios_family_arm_m3_Hwi_doTaskRestore__I                             
1001c219  HwiP_restore                                                              
1001c219  scifOsalLeaveCriticalSection                                              
1001c219  ti_sysbios_family_arm_m3_Hwi_restoreFxn__E                                
1001c21f  ti_sysbios_gates_GateHwi_leave__E                                         
1001c22b  ti_sysbios_knl_Queue_Instance_init__E                                     
1001c231  ti_sysbios_knl_Queue_elemClear__E                                         
1001c237  ti_sysbios_knl_Swi_Module_startup__E                                      
1001c23d  ti_sysbios_knl_Swi_startup__E                                             
1001c243  ti_sysbios_knl_Task_enable__E                                             
1001c249  ti_sysbios_BIOS_RtsGateProxy_enter__E                                     
1001c24d  ti_sysbios_BIOS_RtsGateProxy_leave__E                                     
1001c251  ti_sysbios_family_arm_cc26xx_Timer_getExpiredTicks__E                     
1001c255  ti_sysbios_family_arm_cc26xx_Timer_getPeriod__E                           
1001c259  ti_sysbios_family_arm_cc26xx_Timer_setPeriod__E                           
1001c25d  ti_sysbios_family_arm_m3_Hwi_delete                                       
1001c261  ti_sysbios_family_arm_m3_Hwi_destruct                                     
1001c265  ti_sysbios_family_arm_m3_TaskSupport_Module__startupDone__S               
1001c265  ti_sysbios_knl_Task_SupportProxy_Module__startupDone__S__mangled__        
1001c269  ti_sysbios_gates_GateHwi_query__E                                         
1001c269  xdc_runtime_Main_Module_GateProxy_query__E                                
1001c269  xdc_runtime_System_Module_GateProxy_query__E                              
1001c269  xdc_runtime_System_Module_GateProxy_query__E__mangled__                   
1001c26d  ti_sysbios_gates_GateMutex_delete                                         
1001c271  ti_sysbios_gates_GateMutex_destruct                                       
1001c275  ti_sysbios_BIOS_RtsGateProxy_query__E                                     
1001c275  ti_sysbios_BIOS_RtsGateProxy_query__E__mangled__                          
1001c275  ti_sysbios_gates_GateMutex_query__E                                       
1001c275  ti_sysbios_heaps_HeapMem_Module_GateProxy_query__E                        
1001c275  ti_sysbios_heaps_HeapMem_Module_GateProxy_query__E__mangled__             
1001c279  ti_sysbios_hal_Hwi_HwiProxy_Module__startupDone__S                        
1001c27d  ti_sysbios_hal_Hwi_HwiProxy_delete                                        
1001c281  ti_sysbios_hal_Hwi_HwiProxy_disableInterrupt__E                           
1001c281  ti_sysbios_hal_Hwi_disableInterrupt__E                                    
1001c281  ti_sysbios_hal_Hwi_disableInterrupt__E                                    
1001c285  ti_sysbios_hal_Hwi_HwiProxy_enableInterrupt__E                            
1001c285  ti_sysbios_hal_Hwi_enableInterrupt__E                                     
1001c285  ti_sysbios_hal_Hwi_enableInterrupt__E                                     
1001c289  ti_sysbios_hal_Hwi_HwiProxy_getStackInfo__E                               
1001c289  ti_sysbios_hal_Hwi_getStackInfo__E                                        
1001c289  ti_sysbios_hal_Hwi_getStackInfo__E                                        
1001c28d  ti_sysbios_hal_Hwi_HwiProxy_startup__E                                    
1001c28d  ti_sysbios_hal_Hwi_startup__E                                             
1001c28d  ti_sysbios_hal_Hwi_startup__E                                             
1001c291  ti_sysbios_hal_Hwi_HwiProxy_switchFromBootStack__E                        
1001c295  ti_sysbios_hal_Hwi_delete                                                 
1001c299  ti_sysbios_hal_Hwi_switchFromBootStack__E                                 
1001c299  ti_sysbios_hal_Hwi_switchFromBootStack__E                                 
1001c29d  ti_sysbios_heaps_HeapMem_Module_GateProxy_enter__E                        
1001c2a1  ti_sysbios_heaps_HeapMem_Module_GateProxy_leave__E                        
1001c2a5  ti_sysbios_heaps_HeapMem_isBlocking__E                                    
1001c2a9  ti_sysbios_knl_Clock_TimerProxy_Module__startupDone__S                    
1001c2ad  ti_sysbios_knl_Clock_TimerProxy_getExpiredTicks__E                        
1001c2b1  ti_sysbios_knl_Clock_TimerProxy_getPeriod__E                              
1001c2b5  ti_sysbios_knl_Clock_delete                                               
1001c2b9  ti_sysbios_knl_Clock_destruct                                             
1001c2bd  ti_sysbios_knl_Clock_removeI__E                                           
1001c2c1  ti_sysbios_knl_Clock_setTimeout__E                                        
1001c2c5  ti_sysbios_knl_Mailbox_delete                                             
1001c2c9  ti_sysbios_knl_Mailbox_destruct                                           
1001c2cd  ti_sysbios_knl_Queue_delete                                               
1001c2d1  ti_sysbios_knl_Queue_destruct                                             
1001c2d5  ti_sysbios_knl_Queue_head__E                                              
1001c2d9  ti_sysbios_knl_Queue_next__E                                              
1001c2dd  ti_sysbios_knl_Semaphore_delete                                           
1001c2e1  ti_sysbios_knl_Semaphore_destruct                                         
1001c2e5  ti_sysbios_knl_Swi_delete                                                 
1001c2e9  ti_sysbios_knl_Swi_destruct                                               
1001c2ed  ti_sysbios_knl_Swi_postInit__I                                            
1001c2f1  ti_sysbios_knl_Task_SupportProxy_Module__startupDone__S                   
1001c2f5  ti_sysbios_knl_Task_SupportProxy_getStackAlignment__E                     
1001c2f9  ti_sysbios_knl_Task_SupportProxy_start__E                                 
1001c2fd  ti_sysbios_knl_Task_SupportProxy_swap__E                                  
1001c301  ti_sysbios_knl_Task_delete                                                
1001c305  ti_sysbios_knl_Task_destruct                                              
1001c309  ti_sysbios_knl_Task_startup__E                                            
1001c30d  xdc_runtime_Startup_startMods__I                                          
1001c405  xdc_runtime_Core_createObject__I                                          
1001c487  xdc_runtime_Error_policySpin__E                                           
1001c489  xdc_runtime_Memory_alloc__E                                               
1001c4f9  xdc_runtime_Core_deleteObject__I                                          
1001c559  xdc_runtime_Startup_exec__E                                               
1001c5a9  xdc_runtime_Assert_raise__I                                               
1001c5f1  xdc_runtime_Core_assignParams__I                                          
1001c639  xdc_runtime_Core_constructObject__I                                       
1001c681  xdc_runtime_System_atexit__E                                              
1001c6b9  xdc_runtime_System_processAtExit__E                                       
1001c6ed  xdc_runtime_Core_assignLabel__I                                           
1001c71d  xdc_runtime_Text_cordText__E                                              
1001c749  xdc_runtime_System_abort__E                                               
1001c769  xdc_runtime_Error_raiseX__E                                               
1001c785  xdc_runtime_Memory_valloc__E                                              
1001c7a1  xdc_runtime_Core_destructObject__I                                        
1001c7b9  xdc_runtime_Error_check__E                                                
1001c7d1  xdc_runtime_System_exit__E                                                
1001c7e9  xdc_runtime_Text_ropeText__E                                              
1001c801  xdc_runtime_Memory_free__E                                                
1001c811  xdc_runtime_SysCallback_abort__E                                          
1001c821  xdc_runtime_SysCallback_exit__E                                           
1001c831  xdc_runtime_Timestamp_SupportProxy_get32__E                               
1001c831  xdc_runtime_Timestamp_get32__E                                            
1001c831  xdc_runtime_Timestamp_get32__E                                            
1001c841  xdc_runtime_Error_init__E                                                 
1001c84d  xdc_runtime_Memory_calloc__E                                              
1001c859  xdc_runtime_Memory_getMaxDefaultTypeAlign__E                              
1001c879  xdc_runtime_Gate_leaveSystem__E                                           
1001c87f  xdc_runtime_System_Module_startup__E                                      
1001c885  xdc_runtime_Gate_enterSystem__E                                           
1001c889  xdc_runtime_Memory_HeapProxy_alloc__E                                     
1001c88d  xdc_runtime_Memory_HeapProxy_free__E                                      
1001c891  xdc_runtime_System_Module_GateProxy_enter__E                              
1001c895  xdc_runtime_System_Module_GateProxy_leave__E                              
1001c899  xdc_runtime_System_abortSpin__E                                           
1001c89b  xdc_runtime_System_exitSpin__E                                            
1001c89d  ti_sysbios_family_arm_m3_Hwi_dispatch__I                                  
1001c96d  ti_sysbios_family_arm_m3_TaskSupport_buildTaskStack                       
1001c9b9  ti_sysbios_family_arm_m3_Hwi_initStacks__E                                
1001ca01  ti_sysbios_family_arm_m3_Hwi_excHandlerAsm__I                             
1001ca21  ti_sysbios_family_xxx_Hwi_switchAndRunFunc                                
1001ca3f  ti_sysbios_family_arm_m3_Hwi_pendSV__I                                    
1001ca57  ti_sysbios_family_arm_m3_Hwi_return                                       
1001ca59  ti_sysbios_family_arm_m3_TaskSupport_glue                                 
1001ca69  ti_sysbios_family_arm_m3_TaskSupport_swap__E                              
1001ca69  ti_sysbios_knl_Task_SupportProxy_swap__E__mangled__                       
1001ca71  ti_sysbios_knl_Task_swapReturn                                            
1001ca9b  ti_sysbios_rom_cortexm_cc26xx_CC26xx_getRevision__E                       
20000000  ti_sysbios_family_arm_m3_Hwi_ramVectors                                   
20000100  ti_sysbios_knl_Task_Module__state__V                                      
20000144  ti_sysbios_family_arm_m3_Hwi_Module__state__V                             
20000178  ti_sysbios_knl_Clock_Module__state__V                                     
200001a4  ti_sysbios_BIOS_Module__state__V                                          
200001c8  ti_sysbios_knl_Swi_Module__state__V                                       
200001e4  ti_sysbios_family_arm_cc26xx_Timer_Module__state__V                       
200001ec  ti_sysbios_family_arm_cc26xx_TimestampProvider_Module__state__V           
200001f0  xdc_runtime_Startup_Module__state__V                                      
200001f8  xdc_runtime_System_Module__state__V                                       
20000200  xdc_runtime_Memory_Module__state__V                                       
20000208  uartLog_tail                                                              
20000209  uartLog_head                                                              
2000020a  uartLog_evBufIsEmpty                                                      
2000020c  uartLog_evtNum                                                            
20000214  uartLog_outBuf                                                            
200002c0  uartLog_evBuf                                                             
200007d8  dispHandle                                                                
200007e4  transInterval                                                             
20000844  ledPinTable                                                               
20000864  przTask                                                                   
200008b4  przTaskStack                                                              
20000bd4  linkDBNumConns                                                            
20000ce8  gapRoleTask                                                               
20000d38  gapRoleTaskStack                                                          
20001114  __TI_ft_end                                                               
20001118  __TI_tmpnams                                                              
200011b8  _ftable                                                                   
200012a8  PowerCC26XX_module                                                        
200014ac  _stream                                                                   
200014fc  _device                                                                   
20001574  VDDstatus                                                                 
20001576  frequency                                                                 
20001578  VDDarray                                                                  
2000157c  OmegaAve                                                                  
20001580  OmegaAveArray                                                             
20001584  Grad                                                                      
20001588  GradArray                                                                 
2000158c  GradArray2                                                                
20001590  time_tot                                                                  
20001594  n                                                                         
20001598  p                                                                         
200015a0  voltageArray                                                              
200015aa  OmegaArray                                                                
200015b4  time_high                                                                 
200015be  time_low                                                                  
200015d4  ledPINTable                                                               
20001614  ICall_dispatcher                                                          
2000161c  ICall_enterCriticalSection                                                
20001620  ICall_leaveCriticalSection                                                
20001638  HEAPMGR_SIZE                                                              
20001734  rfRegTbl                                                                  
20001784  ti_sysbios_knl_Task_Object__table__V                                      
200017d0  ti_sysbios_family_arm_cc26xx_Timer_Object__table__V                       
20001850  ti_sysbios_gates_GateMutex_Object__table__V                               
20001888  ti_sysbios_knl_Swi_Module_State_0_readyQ__A                               
200018b8  ti_sysbios_knl_Swi_Object__table__V                                       
200018e8  ti_sysbios_knl_Task_Module_State_0_readyQ__A                              
20001918  user0Cfg                                                                  
20001948  ti_sysbios_knl_Clock_Object__table__V                                     
20001968  ti_sysbios_family_arm_m3_Hwi_Object__table__V                             
20001980  ti_sysbios_heaps_HeapMem_Object__table__V                                 
20001998  xdc_runtime_LoggerCallback_Object__table__V                               
200019a8  __TI_cleanup_ptr                                                          
200019ac  __TI_dtors_ptr                                                            
200019b0  __TI_enable_exit_profile_output                                           
200019b4  lastAppOpcodeSent                                                         
200019b8  pfnBMAlloc                                                                
200019bc  pfnBMFree                                                                 
200019cc  _lock                                                                     
200019d0  _unlock                                                                   
200019dc  ti_sysbios_family_arm_m3_Hwi_Module__root__V                              
200019e4  ti_sysbios_gates_GateHwi_Module__root__V                                  
200019ec  ti_sysbios_gates_GateMutex_Module__root__V                                
200019f4  ti_sysbios_hal_Hwi_Module__root__V                                        
200019fc  ti_sysbios_heaps_HeapMem_Module__root__V                                  
20001a04  ti_sysbios_knl_Clock_Module__root__V                                      
20001a0c  ti_sysbios_knl_Mailbox_Module__root__V                                    
20001a14  ti_sysbios_knl_Queue_Module__root__V                                      
20001a1c  ti_sysbios_knl_Semaphore_Module__root__V                                  
20001a24  ti_sysbios_knl_Swi_Module__root__V                                        
20001a2c  ti_sysbios_knl_Task_Module__root__V                                       
20001a34  xdc_runtime_LoggerCallback_Module__root__V                                
20001a40  appAssertCback                                                            
20001a44  main_func_sp                                                              
20001a48  ti_sysbios_family_arm_m3_Hwi_Module_State_0_excContext__A                 
20001a4c  ti_sysbios_family_arm_m3_Hwi_Module_State_0_excStack__A                   
20001a50  ti_sysbios_knl_Task_Module_State_0_idleTask__A                            
20001a56  ti_sysbios_family_arm_m3_Hwi_Module_State_0_excActive__A                  
20001a60  ti_sysbios_heaps_HeapMem_Instance_State_0_buf__A                          
200020e0  ti_sysbios_knl_Task_Instance_State_0_stack__A                             
200022e0  __CIOBUF_                                                                 
20002500  ti_sysbios_family_arm_m3_Hwi_dispatchTable                                
200025c8  PIN_HandleTable                                                           
20002808  parmbuf                                                                   
20002810  PIN_NumPins                                                               
20002834  trngCC26XXObjects                                                         
20002840  driverlib_release_0_46593                                                 
20002843  heapStart                                                                 
20003f48  __stack                                                                   
20003f48  heapEnd                                                                   
20004348  __STACK_END                                                               
20004348  __STACK_TOP                                                               
20004f2c  A4_rw                                                                     
20004f2c  COMMON_RAM_BASE_ADDR                                                      
20004f40  P2_rw                                                                     
20004f40  P2_s0                                                                     
20004f40  eccRom_windowSize                                                         
20004f44  eccRom_workzone                                                           
20004f48  eccRom_param_p                                                            
20004f4c  eccRom_param_r                                                            
20004f50  eccRom_param_a                                                            
20004f54  inScalar                                                                  
20004f58  inPointX                                                                  
20004f5c  inPointY                                                                  
20004f60  outPointX                                                                 
20004f64  outPointY                                                                 
20004f68  SCAL                                                                      
20004f6c  EXPX                                                                      
20004f70  EXPY                                                                      
20004f74  EXPZ                                                                      
20004f78  EXPW                                                                      
20004f7c  ACCX                                                                      
20004f80  ACCY                                                                      
20004f84  ACCZ                                                                      
20004f88  TMP1                                                                      
20004f8c  TMP2                                                                      
20004f90  TMP3                                                                      
20004f94  TMP4                                                                      
20004f98  TMP5                                                                      
20004f9c  TMP6                                                                      
20004fa0  eccRom_param_Gx                                                           
20004fa4  eccRom_param_Gy                                                           
20004fa8  eccRom_param_b                                                            
20004fac  P2_zi                                                                     
20004fac  ratChanInfo                                                               
20004fcc  fwInfoCmd                                                                 
20004fd8  MSBMOD                                                                    
20004fdc  aux64                                                                     
20004fe4  MOD                                                                       
20004fe8  LEN                                                                       
20004ffc  pSspAesEncrypt_Sw                                                         
e000e000  ti_sysbios_family_arm_m3_Hwi_nvic                                         
ffffffff  __TI_pprof_out_hndl                                                       
ffffffff  __TI_prof_data_size                                                       
ffffffff  __TI_prof_data_start                                                      
ffffffff  __binit__                                                                 
ffffffff  binit                                                                     
UNDEFED   SHT$$INIT_ARRAY$$Base                                                     
UNDEFED   SHT$$INIT_ARRAY$$Limit                                                    

[1098 symbols]
